   1              		.syntax unified
   2              		.cpu cortex-m3
   3              		.fpu softvfp
   4              		.eabi_attribute 20, 1
   5              		.eabi_attribute 21, 1
   6              		.eabi_attribute 23, 3
   7              		.eabi_attribute 24, 1
   8              		.eabi_attribute 25, 1
   9              		.eabi_attribute 26, 1
  10              		.eabi_attribute 30, 6
  11              		.eabi_attribute 18, 4
  12              		.thumb
  13              		.file	"stm32f10x_can.c"
  23              	.Ltext0:
  24              		.file 1 "../StdPeripheralDriver/src/stm32f10x_can.c"
 18070              		.align	2
 18071              		.global	CAN_DeInit
 18072              		.thumb
 18073              		.thumb_func
 18075              	CAN_DeInit:
 18076              	.LFB29:
   1:../StdPeripheralDriver/src/stm32f10x_can.c **** /**
   2:../StdPeripheralDriver/src/stm32f10x_can.c ****   ******************************************************************************
   3:../StdPeripheralDriver/src/stm32f10x_can.c ****   * @file    stm32f10x_can.c
   4:../StdPeripheralDriver/src/stm32f10x_can.c ****   * @author  MCD Application Team
   5:../StdPeripheralDriver/src/stm32f10x_can.c ****   * @version V3.5.0
   6:../StdPeripheralDriver/src/stm32f10x_can.c ****   * @date    11-March-2011
   7:../StdPeripheralDriver/src/stm32f10x_can.c ****   * @brief   This file provides all the CAN firmware functions.
   8:../StdPeripheralDriver/src/stm32f10x_can.c ****   ******************************************************************************
   9:../StdPeripheralDriver/src/stm32f10x_can.c ****   * @attention
  10:../StdPeripheralDriver/src/stm32f10x_can.c ****   *
  11:../StdPeripheralDriver/src/stm32f10x_can.c ****   * THE PRESENT FIRMWARE WHICH IS FOR GUIDANCE ONLY AIMS AT PROVIDING CUSTOMERS
  12:../StdPeripheralDriver/src/stm32f10x_can.c ****   * WITH CODING INFORMATION REGARDING THEIR PRODUCTS IN ORDER FOR THEM TO SAVE
  13:../StdPeripheralDriver/src/stm32f10x_can.c ****   * TIME. AS A RESULT, STMICROELECTRONICS SHALL NOT BE HELD LIABLE FOR ANY
  14:../StdPeripheralDriver/src/stm32f10x_can.c ****   * DIRECT, INDIRECT OR CONSEQUENTIAL DAMAGES WITH RESPECT TO ANY CLAIMS ARISING
  15:../StdPeripheralDriver/src/stm32f10x_can.c ****   * FROM THE CONTENT OF SUCH FIRMWARE AND/OR THE USE MADE BY CUSTOMERS OF THE
  16:../StdPeripheralDriver/src/stm32f10x_can.c ****   * CODING INFORMATION CONTAINED HEREIN IN CONNECTION WITH THEIR PRODUCTS.
  17:../StdPeripheralDriver/src/stm32f10x_can.c ****   *
  18:../StdPeripheralDriver/src/stm32f10x_can.c ****   * <h2><center>&copy; COPYRIGHT 2011 STMicroelectronics</center></h2>
  19:../StdPeripheralDriver/src/stm32f10x_can.c ****   ******************************************************************************
  20:../StdPeripheralDriver/src/stm32f10x_can.c ****   */
  21:../StdPeripheralDriver/src/stm32f10x_can.c **** 
  22:../StdPeripheralDriver/src/stm32f10x_can.c **** /* Includes ------------------------------------------------------------------*/
  23:../StdPeripheralDriver/src/stm32f10x_can.c **** #include "stm32f10x_can.h"
  24:../StdPeripheralDriver/src/stm32f10x_can.c **** #include "stm32f10x_rcc.h"
  25:../StdPeripheralDriver/src/stm32f10x_can.c **** 
  26:../StdPeripheralDriver/src/stm32f10x_can.c **** /** @addtogroup STM32F10x_StdPeriph_Driver
  27:../StdPeripheralDriver/src/stm32f10x_can.c ****   * @{
  28:../StdPeripheralDriver/src/stm32f10x_can.c ****   */
  29:../StdPeripheralDriver/src/stm32f10x_can.c **** 
  30:../StdPeripheralDriver/src/stm32f10x_can.c **** /** @defgroup CAN 
  31:../StdPeripheralDriver/src/stm32f10x_can.c ****   * @brief CAN driver modules
  32:../StdPeripheralDriver/src/stm32f10x_can.c ****   * @{
  33:../StdPeripheralDriver/src/stm32f10x_can.c ****   */ 
  34:../StdPeripheralDriver/src/stm32f10x_can.c **** 
  35:../StdPeripheralDriver/src/stm32f10x_can.c **** /** @defgroup CAN_Private_TypesDefinitions
  36:../StdPeripheralDriver/src/stm32f10x_can.c ****   * @{
  37:../StdPeripheralDriver/src/stm32f10x_can.c ****   */
  38:../StdPeripheralDriver/src/stm32f10x_can.c **** 
  39:../StdPeripheralDriver/src/stm32f10x_can.c **** /**
  40:../StdPeripheralDriver/src/stm32f10x_can.c ****   * @}
  41:../StdPeripheralDriver/src/stm32f10x_can.c ****   */
  42:../StdPeripheralDriver/src/stm32f10x_can.c **** 
  43:../StdPeripheralDriver/src/stm32f10x_can.c **** /** @defgroup CAN_Private_Defines
  44:../StdPeripheralDriver/src/stm32f10x_can.c ****   * @{
  45:../StdPeripheralDriver/src/stm32f10x_can.c ****   */
  46:../StdPeripheralDriver/src/stm32f10x_can.c **** 
  47:../StdPeripheralDriver/src/stm32f10x_can.c **** /* CAN Master Control Register bits */
  48:../StdPeripheralDriver/src/stm32f10x_can.c **** 
  49:../StdPeripheralDriver/src/stm32f10x_can.c **** #define MCR_DBF      ((uint32_t)0x00010000) /* software master reset */
  50:../StdPeripheralDriver/src/stm32f10x_can.c **** 
  51:../StdPeripheralDriver/src/stm32f10x_can.c **** /* CAN Mailbox Transmit Request */
  52:../StdPeripheralDriver/src/stm32f10x_can.c **** #define TMIDxR_TXRQ  ((uint32_t)0x00000001) /* Transmit mailbox request */
  53:../StdPeripheralDriver/src/stm32f10x_can.c **** 
  54:../StdPeripheralDriver/src/stm32f10x_can.c **** /* CAN Filter Master Register bits */
  55:../StdPeripheralDriver/src/stm32f10x_can.c **** #define FMR_FINIT    ((uint32_t)0x00000001) /* Filter init mode */
  56:../StdPeripheralDriver/src/stm32f10x_can.c **** 
  57:../StdPeripheralDriver/src/stm32f10x_can.c **** /* Time out for INAK bit */
  58:../StdPeripheralDriver/src/stm32f10x_can.c **** #define INAK_TIMEOUT        ((uint32_t)0x0000FFFF)
  59:../StdPeripheralDriver/src/stm32f10x_can.c **** /* Time out for SLAK bit */
  60:../StdPeripheralDriver/src/stm32f10x_can.c **** #define SLAK_TIMEOUT        ((uint32_t)0x0000FFFF)
  61:../StdPeripheralDriver/src/stm32f10x_can.c **** 
  62:../StdPeripheralDriver/src/stm32f10x_can.c **** 
  63:../StdPeripheralDriver/src/stm32f10x_can.c **** 
  64:../StdPeripheralDriver/src/stm32f10x_can.c **** /* Flags in TSR register */
  65:../StdPeripheralDriver/src/stm32f10x_can.c **** #define CAN_FLAGS_TSR              ((uint32_t)0x08000000) 
  66:../StdPeripheralDriver/src/stm32f10x_can.c **** /* Flags in RF1R register */
  67:../StdPeripheralDriver/src/stm32f10x_can.c **** #define CAN_FLAGS_RF1R             ((uint32_t)0x04000000) 
  68:../StdPeripheralDriver/src/stm32f10x_can.c **** /* Flags in RF0R register */
  69:../StdPeripheralDriver/src/stm32f10x_can.c **** #define CAN_FLAGS_RF0R             ((uint32_t)0x02000000) 
  70:../StdPeripheralDriver/src/stm32f10x_can.c **** /* Flags in MSR register */
  71:../StdPeripheralDriver/src/stm32f10x_can.c **** #define CAN_FLAGS_MSR              ((uint32_t)0x01000000) 
  72:../StdPeripheralDriver/src/stm32f10x_can.c **** /* Flags in ESR register */
  73:../StdPeripheralDriver/src/stm32f10x_can.c **** #define CAN_FLAGS_ESR              ((uint32_t)0x00F00000) 
  74:../StdPeripheralDriver/src/stm32f10x_can.c **** 
  75:../StdPeripheralDriver/src/stm32f10x_can.c **** /* Mailboxes definition */
  76:../StdPeripheralDriver/src/stm32f10x_can.c **** #define CAN_TXMAILBOX_0                   ((uint8_t)0x00)
  77:../StdPeripheralDriver/src/stm32f10x_can.c **** #define CAN_TXMAILBOX_1                   ((uint8_t)0x01)
  78:../StdPeripheralDriver/src/stm32f10x_can.c **** #define CAN_TXMAILBOX_2                   ((uint8_t)0x02) 
  79:../StdPeripheralDriver/src/stm32f10x_can.c **** 
  80:../StdPeripheralDriver/src/stm32f10x_can.c **** 
  81:../StdPeripheralDriver/src/stm32f10x_can.c **** 
  82:../StdPeripheralDriver/src/stm32f10x_can.c **** #define CAN_MODE_MASK              ((uint32_t) 0x00000003)
  83:../StdPeripheralDriver/src/stm32f10x_can.c **** /**
  84:../StdPeripheralDriver/src/stm32f10x_can.c ****   * @}
  85:../StdPeripheralDriver/src/stm32f10x_can.c ****   */
  86:../StdPeripheralDriver/src/stm32f10x_can.c **** 
  87:../StdPeripheralDriver/src/stm32f10x_can.c **** /** @defgroup CAN_Private_Macros
  88:../StdPeripheralDriver/src/stm32f10x_can.c ****   * @{
  89:../StdPeripheralDriver/src/stm32f10x_can.c ****   */
  90:../StdPeripheralDriver/src/stm32f10x_can.c **** 
  91:../StdPeripheralDriver/src/stm32f10x_can.c **** /**
  92:../StdPeripheralDriver/src/stm32f10x_can.c ****   * @}
  93:../StdPeripheralDriver/src/stm32f10x_can.c ****   */
  94:../StdPeripheralDriver/src/stm32f10x_can.c **** 
  95:../StdPeripheralDriver/src/stm32f10x_can.c **** /** @defgroup CAN_Private_Variables
  96:../StdPeripheralDriver/src/stm32f10x_can.c ****   * @{
  97:../StdPeripheralDriver/src/stm32f10x_can.c ****   */
  98:../StdPeripheralDriver/src/stm32f10x_can.c **** 
  99:../StdPeripheralDriver/src/stm32f10x_can.c **** /**
 100:../StdPeripheralDriver/src/stm32f10x_can.c ****   * @}
 101:../StdPeripheralDriver/src/stm32f10x_can.c ****   */
 102:../StdPeripheralDriver/src/stm32f10x_can.c **** 
 103:../StdPeripheralDriver/src/stm32f10x_can.c **** /** @defgroup CAN_Private_FunctionPrototypes
 104:../StdPeripheralDriver/src/stm32f10x_can.c ****   * @{
 105:../StdPeripheralDriver/src/stm32f10x_can.c ****   */
 106:../StdPeripheralDriver/src/stm32f10x_can.c **** 
 107:../StdPeripheralDriver/src/stm32f10x_can.c **** static ITStatus CheckITStatus(uint32_t CAN_Reg, uint32_t It_Bit);
 108:../StdPeripheralDriver/src/stm32f10x_can.c **** 
 109:../StdPeripheralDriver/src/stm32f10x_can.c **** /**
 110:../StdPeripheralDriver/src/stm32f10x_can.c ****   * @}
 111:../StdPeripheralDriver/src/stm32f10x_can.c ****   */
 112:../StdPeripheralDriver/src/stm32f10x_can.c **** 
 113:../StdPeripheralDriver/src/stm32f10x_can.c **** /** @defgroup CAN_Private_Functions
 114:../StdPeripheralDriver/src/stm32f10x_can.c ****   * @{
 115:../StdPeripheralDriver/src/stm32f10x_can.c ****   */
 116:../StdPeripheralDriver/src/stm32f10x_can.c **** 
 117:../StdPeripheralDriver/src/stm32f10x_can.c **** /**
 118:../StdPeripheralDriver/src/stm32f10x_can.c ****   * @brief  Deinitializes the CAN peripheral registers to their default reset values.
 119:../StdPeripheralDriver/src/stm32f10x_can.c ****   * @param  CANx: where x can be 1 or 2 to select the CAN peripheral.
 120:../StdPeripheralDriver/src/stm32f10x_can.c ****   * @retval None.
 121:../StdPeripheralDriver/src/stm32f10x_can.c ****   */
 122:../StdPeripheralDriver/src/stm32f10x_can.c **** void CAN_DeInit(CAN_TypeDef* CANx)
 123:../StdPeripheralDriver/src/stm32f10x_can.c **** {
 18077              		.loc 1 123 0
 18078              		.cfi_startproc
 18079              		@ args = 0, pretend = 0, frame = 8
 18080              		@ frame_needed = 1, uses_anonymous_args = 0
 18081 0000 80B5     		push	{r7, lr}
 18082              	.LCFI0:
 18083              		.cfi_def_cfa_offset 8
 18084 0002 82B0     		sub	sp, sp, #8
 18085              	.LCFI1:
 18086              		.cfi_def_cfa_offset 16
 18087 0004 00AF     		add	r7, sp, #0
 18088              		.cfi_offset 14, -4
 18089              		.cfi_offset 7, -8
 18090              	.LCFI2:
 18091              		.cfi_def_cfa_register 7
 18092 0006 7860     		str	r0, [r7, #4]
 124:../StdPeripheralDriver/src/stm32f10x_can.c ****   /* Check the parameters */
 125:../StdPeripheralDriver/src/stm32f10x_can.c ****   assert_param(IS_CAN_ALL_PERIPH(CANx));
 126:../StdPeripheralDriver/src/stm32f10x_can.c ****  
 127:../StdPeripheralDriver/src/stm32f10x_can.c ****   if (CANx == CAN1)
 18093              		.loc 1 127 0
 18094 0008 7A68     		ldr	r2, [r7, #4]
 18095 000a 104B     		ldr	r3, .L4
 18096 000c 9A42     		cmp	r2, r3
 18097 000e 0CD1     		bne	.L2
 128:../StdPeripheralDriver/src/stm32f10x_can.c ****   {
 129:../StdPeripheralDriver/src/stm32f10x_can.c ****     /* Enable CAN1 reset state */
 130:../StdPeripheralDriver/src/stm32f10x_can.c ****     RCC_APB1PeriphResetCmd(RCC_APB1Periph_CAN1, ENABLE);
 18098              		.loc 1 130 0
 18099 0010 4FF00070 		mov	r0, #33554432
 18100 0014 4FF00101 		mov	r1, #1
 18101 0018 FFF7FEFF 		bl	RCC_APB1PeriphResetCmd
 131:../StdPeripheralDriver/src/stm32f10x_can.c ****     /* Release CAN1 from reset state */
 132:../StdPeripheralDriver/src/stm32f10x_can.c ****     RCC_APB1PeriphResetCmd(RCC_APB1Periph_CAN1, DISABLE);
 18102              		.loc 1 132 0
 18103 001c 4FF00070 		mov	r0, #33554432
 18104 0020 4FF00001 		mov	r1, #0
 18105 0024 FFF7FEFF 		bl	RCC_APB1PeriphResetCmd
 18106 0028 0BE0     		b	.L1
 18107              	.L2:
 133:../StdPeripheralDriver/src/stm32f10x_can.c ****   }
 134:../StdPeripheralDriver/src/stm32f10x_can.c ****   else
 135:../StdPeripheralDriver/src/stm32f10x_can.c ****   {  
 136:../StdPeripheralDriver/src/stm32f10x_can.c ****     /* Enable CAN2 reset state */
 137:../StdPeripheralDriver/src/stm32f10x_can.c ****     RCC_APB1PeriphResetCmd(RCC_APB1Periph_CAN2, ENABLE);
 18108              		.loc 1 137 0
 18109 002a 4FF08060 		mov	r0, #67108864
 18110 002e 4FF00101 		mov	r1, #1
 18111 0032 FFF7FEFF 		bl	RCC_APB1PeriphResetCmd
 138:../StdPeripheralDriver/src/stm32f10x_can.c ****     /* Release CAN2 from reset state */
 139:../StdPeripheralDriver/src/stm32f10x_can.c ****     RCC_APB1PeriphResetCmd(RCC_APB1Periph_CAN2, DISABLE);
 18112              		.loc 1 139 0
 18113 0036 4FF08060 		mov	r0, #67108864
 18114 003a 4FF00001 		mov	r1, #0
 18115 003e FFF7FEFF 		bl	RCC_APB1PeriphResetCmd
 18116              	.L1:
 140:../StdPeripheralDriver/src/stm32f10x_can.c ****   }
 141:../StdPeripheralDriver/src/stm32f10x_can.c **** }
 18117              		.loc 1 141 0
 18118 0042 07F10807 		add	r7, r7, #8
 18119 0046 BD46     		mov	sp, r7
 18120 0048 80BD     		pop	{r7, pc}
 18121              	.L5:
 18122 004a 00BF     		.align	2
 18123              	.L4:
 18124 004c 00640040 		.word	1073767424
 18125              		.cfi_endproc
 18126              	.LFE29:
 18128              		.section	.text.CAN_Init,"ax",%progbits
 18129              		.align	2
 18130              		.global	CAN_Init
 18131              		.thumb
 18132              		.thumb_func
 18134              	CAN_Init:
 18135              	.LFB30:
 142:../StdPeripheralDriver/src/stm32f10x_can.c **** 
 143:../StdPeripheralDriver/src/stm32f10x_can.c **** /**
 144:../StdPeripheralDriver/src/stm32f10x_can.c ****   * @brief  Initializes the CAN peripheral according to the specified
 145:../StdPeripheralDriver/src/stm32f10x_can.c ****   *         parameters in the CAN_InitStruct.
 146:../StdPeripheralDriver/src/stm32f10x_can.c ****   * @param  CANx:           where x can be 1 or 2 to to select the CAN 
 147:../StdPeripheralDriver/src/stm32f10x_can.c ****   *                         peripheral.
 148:../StdPeripheralDriver/src/stm32f10x_can.c ****   * @param  CAN_InitStruct: pointer to a CAN_InitTypeDef structure that
 149:../StdPeripheralDriver/src/stm32f10x_can.c ****   *                         contains the configuration information for the 
 150:../StdPeripheralDriver/src/stm32f10x_can.c ****   *                         CAN peripheral.
 151:../StdPeripheralDriver/src/stm32f10x_can.c ****   * @retval Constant indicates initialization succeed which will be 
 152:../StdPeripheralDriver/src/stm32f10x_can.c ****   *         CAN_InitStatus_Failed or CAN_InitStatus_Success.
 153:../StdPeripheralDriver/src/stm32f10x_can.c ****   */
 154:../StdPeripheralDriver/src/stm32f10x_can.c **** uint8_t CAN_Init(CAN_TypeDef* CANx, CAN_InitTypeDef* CAN_InitStruct)
 155:../StdPeripheralDriver/src/stm32f10x_can.c **** {
 18136              		.loc 1 155 0
 18137              		.cfi_startproc
 18138              		@ args = 0, pretend = 0, frame = 16
 18139              		@ frame_needed = 1, uses_anonymous_args = 0
 18140              		@ link register save eliminated.
 18141 0000 80B4     		push	{r7}
 18142              	.LCFI3:
 18143              		.cfi_def_cfa_offset 4
 18144 0002 85B0     		sub	sp, sp, #20
 18145              	.LCFI4:
 18146              		.cfi_def_cfa_offset 24
 18147 0004 00AF     		add	r7, sp, #0
 18148              		.cfi_offset 7, -4
 18149              	.LCFI5:
 18150              		.cfi_def_cfa_register 7
 18151 0006 7860     		str	r0, [r7, #4]
 18152 0008 3960     		str	r1, [r7, #0]
 156:../StdPeripheralDriver/src/stm32f10x_can.c ****   uint8_t InitStatus = CAN_InitStatus_Failed;
 18153              		.loc 1 156 0
 18154 000a 4FF00003 		mov	r3, #0
 18155 000e FB73     		strb	r3, [r7, #15]
 157:../StdPeripheralDriver/src/stm32f10x_can.c ****   uint32_t wait_ack = 0x00000000;
 18156              		.loc 1 157 0
 18157 0010 4FF00003 		mov	r3, #0
 18158 0014 BB60     		str	r3, [r7, #8]
 158:../StdPeripheralDriver/src/stm32f10x_can.c ****   /* Check the parameters */
 159:../StdPeripheralDriver/src/stm32f10x_can.c ****   assert_param(IS_CAN_ALL_PERIPH(CANx));
 160:../StdPeripheralDriver/src/stm32f10x_can.c ****   assert_param(IS_FUNCTIONAL_STATE(CAN_InitStruct->CAN_TTCM));
 161:../StdPeripheralDriver/src/stm32f10x_can.c ****   assert_param(IS_FUNCTIONAL_STATE(CAN_InitStruct->CAN_ABOM));
 162:../StdPeripheralDriver/src/stm32f10x_can.c ****   assert_param(IS_FUNCTIONAL_STATE(CAN_InitStruct->CAN_AWUM));
 163:../StdPeripheralDriver/src/stm32f10x_can.c ****   assert_param(IS_FUNCTIONAL_STATE(CAN_InitStruct->CAN_NART));
 164:../StdPeripheralDriver/src/stm32f10x_can.c ****   assert_param(IS_FUNCTIONAL_STATE(CAN_InitStruct->CAN_RFLM));
 165:../StdPeripheralDriver/src/stm32f10x_can.c ****   assert_param(IS_FUNCTIONAL_STATE(CAN_InitStruct->CAN_TXFP));
 166:../StdPeripheralDriver/src/stm32f10x_can.c ****   assert_param(IS_CAN_MODE(CAN_InitStruct->CAN_Mode));
 167:../StdPeripheralDriver/src/stm32f10x_can.c ****   assert_param(IS_CAN_SJW(CAN_InitStruct->CAN_SJW));
 168:../StdPeripheralDriver/src/stm32f10x_can.c ****   assert_param(IS_CAN_BS1(CAN_InitStruct->CAN_BS1));
 169:../StdPeripheralDriver/src/stm32f10x_can.c ****   assert_param(IS_CAN_BS2(CAN_InitStruct->CAN_BS2));
 170:../StdPeripheralDriver/src/stm32f10x_can.c ****   assert_param(IS_CAN_PRESCALER(CAN_InitStruct->CAN_Prescaler));
 171:../StdPeripheralDriver/src/stm32f10x_can.c **** 
 172:../StdPeripheralDriver/src/stm32f10x_can.c ****   /* Exit from sleep mode */
 173:../StdPeripheralDriver/src/stm32f10x_can.c ****   CANx->MCR &= (~(uint32_t)CAN_MCR_SLEEP);
 18159              		.loc 1 173 0
 18160 0016 7B68     		ldr	r3, [r7, #4]
 18161 0018 1B68     		ldr	r3, [r3, #0]
 18162 001a 23F00202 		bic	r2, r3, #2
 18163 001e 7B68     		ldr	r3, [r7, #4]
 18164 0020 1A60     		str	r2, [r3, #0]
 174:../StdPeripheralDriver/src/stm32f10x_can.c **** 
 175:../StdPeripheralDriver/src/stm32f10x_can.c ****   /* Request initialisation */
 176:../StdPeripheralDriver/src/stm32f10x_can.c ****   CANx->MCR |= CAN_MCR_INRQ ;
 18165              		.loc 1 176 0
 18166 0022 7B68     		ldr	r3, [r7, #4]
 18167 0024 1B68     		ldr	r3, [r3, #0]
 18168 0026 43F00102 		orr	r2, r3, #1
 18169 002a 7B68     		ldr	r3, [r7, #4]
 18170 002c 1A60     		str	r2, [r3, #0]
 177:../StdPeripheralDriver/src/stm32f10x_can.c **** 
 178:../StdPeripheralDriver/src/stm32f10x_can.c ****   /* Wait the acknowledge */
 179:../StdPeripheralDriver/src/stm32f10x_can.c ****   while (((CANx->MSR & CAN_MSR_INAK) != CAN_MSR_INAK) && (wait_ack != INAK_TIMEOUT))
 18171              		.loc 1 179 0
 18172 002e 03E0     		b	.L7
 18173              	.L9:
 180:../StdPeripheralDriver/src/stm32f10x_can.c ****   {
 181:../StdPeripheralDriver/src/stm32f10x_can.c ****     wait_ack++;
 18174              		.loc 1 181 0
 18175 0030 BB68     		ldr	r3, [r7, #8]
 18176 0032 03F10103 		add	r3, r3, #1
 18177 0036 BB60     		str	r3, [r7, #8]
 18178              	.L7:
 179:../StdPeripheralDriver/src/stm32f10x_can.c ****   while (((CANx->MSR & CAN_MSR_INAK) != CAN_MSR_INAK) && (wait_ack != INAK_TIMEOUT))
 18179              		.loc 1 179 0 discriminator 1
 18180 0038 7B68     		ldr	r3, [r7, #4]
 18181 003a 5B68     		ldr	r3, [r3, #4]
 18182 003c 03F00103 		and	r3, r3, #1
 18183 0040 002B     		cmp	r3, #0
 18184 0042 04D1     		bne	.L8
 179:../StdPeripheralDriver/src/stm32f10x_can.c ****   while (((CANx->MSR & CAN_MSR_INAK) != CAN_MSR_INAK) && (wait_ack != INAK_TIMEOUT))
 18185              		.loc 1 179 0 is_stmt 0 discriminator 2
 18186 0044 BA68     		ldr	r2, [r7, #8]
 18187 0046 4FF6FF73 		movw	r3, #65535
 18188 004a 9A42     		cmp	r2, r3
 18189 004c F0D1     		bne	.L9
 18190              	.L8:
 182:../StdPeripheralDriver/src/stm32f10x_can.c ****   }
 183:../StdPeripheralDriver/src/stm32f10x_can.c **** 
 184:../StdPeripheralDriver/src/stm32f10x_can.c ****   /* Check acknowledge */
 185:../StdPeripheralDriver/src/stm32f10x_can.c ****   if ((CANx->MSR & CAN_MSR_INAK) != CAN_MSR_INAK)
 18191              		.loc 1 185 0 is_stmt 1
 18192 004e 7B68     		ldr	r3, [r7, #4]
 18193 0050 5B68     		ldr	r3, [r3, #4]
 18194 0052 03F00103 		and	r3, r3, #1
 18195 0056 002B     		cmp	r3, #0
 18196 0058 03D1     		bne	.L10
 186:../StdPeripheralDriver/src/stm32f10x_can.c ****   {
 187:../StdPeripheralDriver/src/stm32f10x_can.c ****     InitStatus = CAN_InitStatus_Failed;
 18197              		.loc 1 187 0
 18198 005a 4FF00003 		mov	r3, #0
 18199 005e FB73     		strb	r3, [r7, #15]
 18200 0060 A7E0     		b	.L11
 18201              	.L10:
 188:../StdPeripheralDriver/src/stm32f10x_can.c ****   }
 189:../StdPeripheralDriver/src/stm32f10x_can.c ****   else 
 190:../StdPeripheralDriver/src/stm32f10x_can.c ****   {
 191:../StdPeripheralDriver/src/stm32f10x_can.c ****     /* Set the time triggered communication mode */
 192:../StdPeripheralDriver/src/stm32f10x_can.c ****     if (CAN_InitStruct->CAN_TTCM == ENABLE)
 18202              		.loc 1 192 0
 18203 0062 3B68     		ldr	r3, [r7, #0]
 18204 0064 9B79     		ldrb	r3, [r3, #6]	@ zero_extendqisi2
 18205 0066 012B     		cmp	r3, #1
 18206 0068 06D1     		bne	.L12
 193:../StdPeripheralDriver/src/stm32f10x_can.c ****     {
 194:../StdPeripheralDriver/src/stm32f10x_can.c ****       CANx->MCR |= CAN_MCR_TTCM;
 18207              		.loc 1 194 0
 18208 006a 7B68     		ldr	r3, [r7, #4]
 18209 006c 1B68     		ldr	r3, [r3, #0]
 18210 006e 43F08002 		orr	r2, r3, #128
 18211 0072 7B68     		ldr	r3, [r7, #4]
 18212 0074 1A60     		str	r2, [r3, #0]
 18213 0076 05E0     		b	.L13
 18214              	.L12:
 195:../StdPeripheralDriver/src/stm32f10x_can.c ****     }
 196:../StdPeripheralDriver/src/stm32f10x_can.c ****     else
 197:../StdPeripheralDriver/src/stm32f10x_can.c ****     {
 198:../StdPeripheralDriver/src/stm32f10x_can.c ****       CANx->MCR &= ~(uint32_t)CAN_MCR_TTCM;
 18215              		.loc 1 198 0
 18216 0078 7B68     		ldr	r3, [r7, #4]
 18217 007a 1B68     		ldr	r3, [r3, #0]
 18218 007c 23F08002 		bic	r2, r3, #128
 18219 0080 7B68     		ldr	r3, [r7, #4]
 18220 0082 1A60     		str	r2, [r3, #0]
 18221              	.L13:
 199:../StdPeripheralDriver/src/stm32f10x_can.c ****     }
 200:../StdPeripheralDriver/src/stm32f10x_can.c **** 
 201:../StdPeripheralDriver/src/stm32f10x_can.c ****     /* Set the automatic bus-off management */
 202:../StdPeripheralDriver/src/stm32f10x_can.c ****     if (CAN_InitStruct->CAN_ABOM == ENABLE)
 18222              		.loc 1 202 0
 18223 0084 3B68     		ldr	r3, [r7, #0]
 18224 0086 DB79     		ldrb	r3, [r3, #7]	@ zero_extendqisi2
 18225 0088 012B     		cmp	r3, #1
 18226 008a 06D1     		bne	.L14
 203:../StdPeripheralDriver/src/stm32f10x_can.c ****     {
 204:../StdPeripheralDriver/src/stm32f10x_can.c ****       CANx->MCR |= CAN_MCR_ABOM;
 18227              		.loc 1 204 0
 18228 008c 7B68     		ldr	r3, [r7, #4]
 18229 008e 1B68     		ldr	r3, [r3, #0]
 18230 0090 43F04002 		orr	r2, r3, #64
 18231 0094 7B68     		ldr	r3, [r7, #4]
 18232 0096 1A60     		str	r2, [r3, #0]
 18233 0098 05E0     		b	.L15
 18234              	.L14:
 205:../StdPeripheralDriver/src/stm32f10x_can.c ****     }
 206:../StdPeripheralDriver/src/stm32f10x_can.c ****     else
 207:../StdPeripheralDriver/src/stm32f10x_can.c ****     {
 208:../StdPeripheralDriver/src/stm32f10x_can.c ****       CANx->MCR &= ~(uint32_t)CAN_MCR_ABOM;
 18235              		.loc 1 208 0
 18236 009a 7B68     		ldr	r3, [r7, #4]
 18237 009c 1B68     		ldr	r3, [r3, #0]
 18238 009e 23F04002 		bic	r2, r3, #64
 18239 00a2 7B68     		ldr	r3, [r7, #4]
 18240 00a4 1A60     		str	r2, [r3, #0]
 18241              	.L15:
 209:../StdPeripheralDriver/src/stm32f10x_can.c ****     }
 210:../StdPeripheralDriver/src/stm32f10x_can.c **** 
 211:../StdPeripheralDriver/src/stm32f10x_can.c ****     /* Set the automatic wake-up mode */
 212:../StdPeripheralDriver/src/stm32f10x_can.c ****     if (CAN_InitStruct->CAN_AWUM == ENABLE)
 18242              		.loc 1 212 0
 18243 00a6 3B68     		ldr	r3, [r7, #0]
 18244 00a8 1B7A     		ldrb	r3, [r3, #8]	@ zero_extendqisi2
 18245 00aa 012B     		cmp	r3, #1
 18246 00ac 06D1     		bne	.L16
 213:../StdPeripheralDriver/src/stm32f10x_can.c ****     {
 214:../StdPeripheralDriver/src/stm32f10x_can.c ****       CANx->MCR |= CAN_MCR_AWUM;
 18247              		.loc 1 214 0
 18248 00ae 7B68     		ldr	r3, [r7, #4]
 18249 00b0 1B68     		ldr	r3, [r3, #0]
 18250 00b2 43F02002 		orr	r2, r3, #32
 18251 00b6 7B68     		ldr	r3, [r7, #4]
 18252 00b8 1A60     		str	r2, [r3, #0]
 18253 00ba 05E0     		b	.L17
 18254              	.L16:
 215:../StdPeripheralDriver/src/stm32f10x_can.c ****     }
 216:../StdPeripheralDriver/src/stm32f10x_can.c ****     else
 217:../StdPeripheralDriver/src/stm32f10x_can.c ****     {
 218:../StdPeripheralDriver/src/stm32f10x_can.c ****       CANx->MCR &= ~(uint32_t)CAN_MCR_AWUM;
 18255              		.loc 1 218 0
 18256 00bc 7B68     		ldr	r3, [r7, #4]
 18257 00be 1B68     		ldr	r3, [r3, #0]
 18258 00c0 23F02002 		bic	r2, r3, #32
 18259 00c4 7B68     		ldr	r3, [r7, #4]
 18260 00c6 1A60     		str	r2, [r3, #0]
 18261              	.L17:
 219:../StdPeripheralDriver/src/stm32f10x_can.c ****     }
 220:../StdPeripheralDriver/src/stm32f10x_can.c **** 
 221:../StdPeripheralDriver/src/stm32f10x_can.c ****     /* Set the no automatic retransmission */
 222:../StdPeripheralDriver/src/stm32f10x_can.c ****     if (CAN_InitStruct->CAN_NART == ENABLE)
 18262              		.loc 1 222 0
 18263 00c8 3B68     		ldr	r3, [r7, #0]
 18264 00ca 5B7A     		ldrb	r3, [r3, #9]	@ zero_extendqisi2
 18265 00cc 012B     		cmp	r3, #1
 18266 00ce 06D1     		bne	.L18
 223:../StdPeripheralDriver/src/stm32f10x_can.c ****     {
 224:../StdPeripheralDriver/src/stm32f10x_can.c ****       CANx->MCR |= CAN_MCR_NART;
 18267              		.loc 1 224 0
 18268 00d0 7B68     		ldr	r3, [r7, #4]
 18269 00d2 1B68     		ldr	r3, [r3, #0]
 18270 00d4 43F01002 		orr	r2, r3, #16
 18271 00d8 7B68     		ldr	r3, [r7, #4]
 18272 00da 1A60     		str	r2, [r3, #0]
 18273 00dc 05E0     		b	.L19
 18274              	.L18:
 225:../StdPeripheralDriver/src/stm32f10x_can.c ****     }
 226:../StdPeripheralDriver/src/stm32f10x_can.c ****     else
 227:../StdPeripheralDriver/src/stm32f10x_can.c ****     {
 228:../StdPeripheralDriver/src/stm32f10x_can.c ****       CANx->MCR &= ~(uint32_t)CAN_MCR_NART;
 18275              		.loc 1 228 0
 18276 00de 7B68     		ldr	r3, [r7, #4]
 18277 00e0 1B68     		ldr	r3, [r3, #0]
 18278 00e2 23F01002 		bic	r2, r3, #16
 18279 00e6 7B68     		ldr	r3, [r7, #4]
 18280 00e8 1A60     		str	r2, [r3, #0]
 18281              	.L19:
 229:../StdPeripheralDriver/src/stm32f10x_can.c ****     }
 230:../StdPeripheralDriver/src/stm32f10x_can.c **** 
 231:../StdPeripheralDriver/src/stm32f10x_can.c ****     /* Set the receive FIFO locked mode */
 232:../StdPeripheralDriver/src/stm32f10x_can.c ****     if (CAN_InitStruct->CAN_RFLM == ENABLE)
 18282              		.loc 1 232 0
 18283 00ea 3B68     		ldr	r3, [r7, #0]
 18284 00ec 9B7A     		ldrb	r3, [r3, #10]	@ zero_extendqisi2
 18285 00ee 012B     		cmp	r3, #1
 18286 00f0 06D1     		bne	.L20
 233:../StdPeripheralDriver/src/stm32f10x_can.c ****     {
 234:../StdPeripheralDriver/src/stm32f10x_can.c ****       CANx->MCR |= CAN_MCR_RFLM;
 18287              		.loc 1 234 0
 18288 00f2 7B68     		ldr	r3, [r7, #4]
 18289 00f4 1B68     		ldr	r3, [r3, #0]
 18290 00f6 43F00802 		orr	r2, r3, #8
 18291 00fa 7B68     		ldr	r3, [r7, #4]
 18292 00fc 1A60     		str	r2, [r3, #0]
 18293 00fe 05E0     		b	.L21
 18294              	.L20:
 235:../StdPeripheralDriver/src/stm32f10x_can.c ****     }
 236:../StdPeripheralDriver/src/stm32f10x_can.c ****     else
 237:../StdPeripheralDriver/src/stm32f10x_can.c ****     {
 238:../StdPeripheralDriver/src/stm32f10x_can.c ****       CANx->MCR &= ~(uint32_t)CAN_MCR_RFLM;
 18295              		.loc 1 238 0
 18296 0100 7B68     		ldr	r3, [r7, #4]
 18297 0102 1B68     		ldr	r3, [r3, #0]
 18298 0104 23F00802 		bic	r2, r3, #8
 18299 0108 7B68     		ldr	r3, [r7, #4]
 18300 010a 1A60     		str	r2, [r3, #0]
 18301              	.L21:
 239:../StdPeripheralDriver/src/stm32f10x_can.c ****     }
 240:../StdPeripheralDriver/src/stm32f10x_can.c **** 
 241:../StdPeripheralDriver/src/stm32f10x_can.c ****     /* Set the transmit FIFO priority */
 242:../StdPeripheralDriver/src/stm32f10x_can.c ****     if (CAN_InitStruct->CAN_TXFP == ENABLE)
 18302              		.loc 1 242 0
 18303 010c 3B68     		ldr	r3, [r7, #0]
 18304 010e DB7A     		ldrb	r3, [r3, #11]	@ zero_extendqisi2
 18305 0110 012B     		cmp	r3, #1
 18306 0112 06D1     		bne	.L22
 243:../StdPeripheralDriver/src/stm32f10x_can.c ****     {
 244:../StdPeripheralDriver/src/stm32f10x_can.c ****       CANx->MCR |= CAN_MCR_TXFP;
 18307              		.loc 1 244 0
 18308 0114 7B68     		ldr	r3, [r7, #4]
 18309 0116 1B68     		ldr	r3, [r3, #0]
 18310 0118 43F00402 		orr	r2, r3, #4
 18311 011c 7B68     		ldr	r3, [r7, #4]
 18312 011e 1A60     		str	r2, [r3, #0]
 18313 0120 05E0     		b	.L23
 18314              	.L22:
 245:../StdPeripheralDriver/src/stm32f10x_can.c ****     }
 246:../StdPeripheralDriver/src/stm32f10x_can.c ****     else
 247:../StdPeripheralDriver/src/stm32f10x_can.c ****     {
 248:../StdPeripheralDriver/src/stm32f10x_can.c ****       CANx->MCR &= ~(uint32_t)CAN_MCR_TXFP;
 18315              		.loc 1 248 0
 18316 0122 7B68     		ldr	r3, [r7, #4]
 18317 0124 1B68     		ldr	r3, [r3, #0]
 18318 0126 23F00402 		bic	r2, r3, #4
 18319 012a 7B68     		ldr	r3, [r7, #4]
 18320 012c 1A60     		str	r2, [r3, #0]
 18321              	.L23:
 249:../StdPeripheralDriver/src/stm32f10x_can.c ****     }
 250:../StdPeripheralDriver/src/stm32f10x_can.c **** 
 251:../StdPeripheralDriver/src/stm32f10x_can.c ****     /* Set the bit timing register */
 252:../StdPeripheralDriver/src/stm32f10x_can.c ****     CANx->BTR = (uint32_t)((uint32_t)CAN_InitStruct->CAN_Mode << 30) | \
 18322              		.loc 1 252 0
 18323 012e 3B68     		ldr	r3, [r7, #0]
 18324 0130 9B78     		ldrb	r3, [r3, #2]	@ zero_extendqisi2
 18325 0132 4FEA8372 		lsl	r2, r3, #30
 253:../StdPeripheralDriver/src/stm32f10x_can.c ****                 ((uint32_t)CAN_InitStruct->CAN_SJW << 24) | \
 18326              		.loc 1 253 0
 18327 0136 3B68     		ldr	r3, [r7, #0]
 18328 0138 DB78     		ldrb	r3, [r3, #3]	@ zero_extendqisi2
 18329 013a 4FEA0363 		lsl	r3, r3, #24
 252:../StdPeripheralDriver/src/stm32f10x_can.c ****     CANx->BTR = (uint32_t)((uint32_t)CAN_InitStruct->CAN_Mode << 30) | \
 18330              		.loc 1 252 0
 18331 013e 1A43     		orrs	r2, r2, r3
 254:../StdPeripheralDriver/src/stm32f10x_can.c ****                 ((uint32_t)CAN_InitStruct->CAN_BS1 << 16) | \
 18332              		.loc 1 254 0
 18333 0140 3B68     		ldr	r3, [r7, #0]
 18334 0142 1B79     		ldrb	r3, [r3, #4]	@ zero_extendqisi2
 18335 0144 4FEA0343 		lsl	r3, r3, #16
 253:../StdPeripheralDriver/src/stm32f10x_can.c ****                 ((uint32_t)CAN_InitStruct->CAN_SJW << 24) | \
 18336              		.loc 1 253 0
 18337 0148 1A43     		orrs	r2, r2, r3
 255:../StdPeripheralDriver/src/stm32f10x_can.c ****                 ((uint32_t)CAN_InitStruct->CAN_BS2 << 20) | \
 18338              		.loc 1 255 0
 18339 014a 3B68     		ldr	r3, [r7, #0]
 18340 014c 5B79     		ldrb	r3, [r3, #5]	@ zero_extendqisi2
 18341 014e 4FEA0353 		lsl	r3, r3, #20
 254:../StdPeripheralDriver/src/stm32f10x_can.c ****                 ((uint32_t)CAN_InitStruct->CAN_BS1 << 16) | \
 18342              		.loc 1 254 0
 18343 0152 1A43     		orrs	r2, r2, r3
 256:../StdPeripheralDriver/src/stm32f10x_can.c ****                ((uint32_t)CAN_InitStruct->CAN_Prescaler - 1);
 18344              		.loc 1 256 0
 18345 0154 3B68     		ldr	r3, [r7, #0]
 18346 0156 1B88     		ldrh	r3, [r3, #0]
 18347 0158 03F1FF33 		add	r3, r3, #-1
 255:../StdPeripheralDriver/src/stm32f10x_can.c ****                 ((uint32_t)CAN_InitStruct->CAN_BS2 << 20) | \
 18348              		.loc 1 255 0
 18349 015c 1A43     		orrs	r2, r2, r3
 252:../StdPeripheralDriver/src/stm32f10x_can.c ****     CANx->BTR = (uint32_t)((uint32_t)CAN_InitStruct->CAN_Mode << 30) | \
 18350              		.loc 1 252 0
 18351 015e 7B68     		ldr	r3, [r7, #4]
 18352 0160 DA61     		str	r2, [r3, #28]
 257:../StdPeripheralDriver/src/stm32f10x_can.c **** 
 258:../StdPeripheralDriver/src/stm32f10x_can.c ****     /* Request leave initialisation */
 259:../StdPeripheralDriver/src/stm32f10x_can.c ****     CANx->MCR &= ~(uint32_t)CAN_MCR_INRQ;
 18353              		.loc 1 259 0
 18354 0162 7B68     		ldr	r3, [r7, #4]
 18355 0164 1B68     		ldr	r3, [r3, #0]
 18356 0166 23F00102 		bic	r2, r3, #1
 18357 016a 7B68     		ldr	r3, [r7, #4]
 18358 016c 1A60     		str	r2, [r3, #0]
 260:../StdPeripheralDriver/src/stm32f10x_can.c **** 
 261:../StdPeripheralDriver/src/stm32f10x_can.c ****    /* Wait the acknowledge */
 262:../StdPeripheralDriver/src/stm32f10x_can.c ****    wait_ack = 0;
 18359              		.loc 1 262 0
 18360 016e 4FF00003 		mov	r3, #0
 18361 0172 BB60     		str	r3, [r7, #8]
 263:../StdPeripheralDriver/src/stm32f10x_can.c **** 
 264:../StdPeripheralDriver/src/stm32f10x_can.c ****    while (((CANx->MSR & CAN_MSR_INAK) == CAN_MSR_INAK) && (wait_ack != INAK_TIMEOUT))
 18362              		.loc 1 264 0
 18363 0174 03E0     		b	.L24
 18364              	.L26:
 265:../StdPeripheralDriver/src/stm32f10x_can.c ****    {
 266:../StdPeripheralDriver/src/stm32f10x_can.c ****      wait_ack++;
 18365              		.loc 1 266 0
 18366 0176 BB68     		ldr	r3, [r7, #8]
 18367 0178 03F10103 		add	r3, r3, #1
 18368 017c BB60     		str	r3, [r7, #8]
 18369              	.L24:
 264:../StdPeripheralDriver/src/stm32f10x_can.c ****    while (((CANx->MSR & CAN_MSR_INAK) == CAN_MSR_INAK) && (wait_ack != INAK_TIMEOUT))
 18370              		.loc 1 264 0 discriminator 1
 18371 017e 7B68     		ldr	r3, [r7, #4]
 18372 0180 5B68     		ldr	r3, [r3, #4]
 18373 0182 03F00103 		and	r3, r3, #1
 18374 0186 DBB2     		uxtb	r3, r3
 18375 0188 002B     		cmp	r3, #0
 18376 018a 04D0     		beq	.L25
 264:../StdPeripheralDriver/src/stm32f10x_can.c ****    while (((CANx->MSR & CAN_MSR_INAK) == CAN_MSR_INAK) && (wait_ack != INAK_TIMEOUT))
 18377              		.loc 1 264 0 is_stmt 0 discriminator 2
 18378 018c BA68     		ldr	r2, [r7, #8]
 18379 018e 4FF6FF73 		movw	r3, #65535
 18380 0192 9A42     		cmp	r2, r3
 18381 0194 EFD1     		bne	.L26
 18382              	.L25:
 267:../StdPeripheralDriver/src/stm32f10x_can.c ****    }
 268:../StdPeripheralDriver/src/stm32f10x_can.c **** 
 269:../StdPeripheralDriver/src/stm32f10x_can.c ****     /* ...and check acknowledged */
 270:../StdPeripheralDriver/src/stm32f10x_can.c ****     if ((CANx->MSR & CAN_MSR_INAK) == CAN_MSR_INAK)
 18383              		.loc 1 270 0 is_stmt 1
 18384 0196 7B68     		ldr	r3, [r7, #4]
 18385 0198 5B68     		ldr	r3, [r3, #4]
 18386 019a 03F00103 		and	r3, r3, #1
 18387 019e DBB2     		uxtb	r3, r3
 18388 01a0 002B     		cmp	r3, #0
 18389 01a2 03D0     		beq	.L27
 271:../StdPeripheralDriver/src/stm32f10x_can.c ****     {
 272:../StdPeripheralDriver/src/stm32f10x_can.c ****       InitStatus = CAN_InitStatus_Failed;
 18390              		.loc 1 272 0
 18391 01a4 4FF00003 		mov	r3, #0
 18392 01a8 FB73     		strb	r3, [r7, #15]
 18393 01aa 02E0     		b	.L11
 18394              	.L27:
 273:../StdPeripheralDriver/src/stm32f10x_can.c ****     }
 274:../StdPeripheralDriver/src/stm32f10x_can.c ****     else
 275:../StdPeripheralDriver/src/stm32f10x_can.c ****     {
 276:../StdPeripheralDriver/src/stm32f10x_can.c ****       InitStatus = CAN_InitStatus_Success ;
 18395              		.loc 1 276 0
 18396 01ac 4FF00103 		mov	r3, #1
 18397 01b0 FB73     		strb	r3, [r7, #15]
 18398              	.L11:
 277:../StdPeripheralDriver/src/stm32f10x_can.c ****     }
 278:../StdPeripheralDriver/src/stm32f10x_can.c ****   }
 279:../StdPeripheralDriver/src/stm32f10x_can.c **** 
 280:../StdPeripheralDriver/src/stm32f10x_can.c ****   /* At this step, return the status of initialization */
 281:../StdPeripheralDriver/src/stm32f10x_can.c ****   return InitStatus;
 18399              		.loc 1 281 0
 18400 01b2 FB7B     		ldrb	r3, [r7, #15]	@ zero_extendqisi2
 282:../StdPeripheralDriver/src/stm32f10x_can.c **** }
 18401              		.loc 1 282 0
 18402 01b4 1846     		mov	r0, r3
 18403 01b6 07F11407 		add	r7, r7, #20
 18404 01ba BD46     		mov	sp, r7
 18405 01bc 80BC     		pop	{r7}
 18406 01be 7047     		bx	lr
 18407              		.cfi_endproc
 18408              	.LFE30:
 18410              		.section	.text.CAN_FilterInit,"ax",%progbits
 18411              		.align	2
 18412              		.global	CAN_FilterInit
 18413              		.thumb
 18414              		.thumb_func
 18416              	CAN_FilterInit:
 18417              	.LFB31:
 283:../StdPeripheralDriver/src/stm32f10x_can.c **** 
 284:../StdPeripheralDriver/src/stm32f10x_can.c **** /**
 285:../StdPeripheralDriver/src/stm32f10x_can.c ****   * @brief  Initializes the CAN peripheral according to the specified
 286:../StdPeripheralDriver/src/stm32f10x_can.c ****   *         parameters in the CAN_FilterInitStruct.
 287:../StdPeripheralDriver/src/stm32f10x_can.c ****   * @param  CAN_FilterInitStruct: pointer to a CAN_FilterInitTypeDef
 288:../StdPeripheralDriver/src/stm32f10x_can.c ****   *                               structure that contains the configuration 
 289:../StdPeripheralDriver/src/stm32f10x_can.c ****   *                               information.
 290:../StdPeripheralDriver/src/stm32f10x_can.c ****   * @retval None.
 291:../StdPeripheralDriver/src/stm32f10x_can.c ****   */
 292:../StdPeripheralDriver/src/stm32f10x_can.c **** void CAN_FilterInit(CAN_FilterInitTypeDef* CAN_FilterInitStruct)
 293:../StdPeripheralDriver/src/stm32f10x_can.c **** {
 18418              		.loc 1 293 0
 18419              		.cfi_startproc
 18420              		@ args = 0, pretend = 0, frame = 16
 18421              		@ frame_needed = 1, uses_anonymous_args = 0
 18422              		@ link register save eliminated.
 18423 0000 80B4     		push	{r7}
 18424              	.LCFI6:
 18425              		.cfi_def_cfa_offset 4
 18426 0002 85B0     		sub	sp, sp, #20
 18427              	.LCFI7:
 18428              		.cfi_def_cfa_offset 24
 18429 0004 00AF     		add	r7, sp, #0
 18430              		.cfi_offset 7, -4
 18431              	.LCFI8:
 18432              		.cfi_def_cfa_register 7
 18433 0006 7860     		str	r0, [r7, #4]
 294:../StdPeripheralDriver/src/stm32f10x_can.c ****   uint32_t filter_number_bit_pos = 0;
 18434              		.loc 1 294 0
 18435 0008 4FF00003 		mov	r3, #0
 18436 000c FB60     		str	r3, [r7, #12]
 295:../StdPeripheralDriver/src/stm32f10x_can.c ****   /* Check the parameters */
 296:../StdPeripheralDriver/src/stm32f10x_can.c ****   assert_param(IS_CAN_FILTER_NUMBER(CAN_FilterInitStruct->CAN_FilterNumber));
 297:../StdPeripheralDriver/src/stm32f10x_can.c ****   assert_param(IS_CAN_FILTER_MODE(CAN_FilterInitStruct->CAN_FilterMode));
 298:../StdPeripheralDriver/src/stm32f10x_can.c ****   assert_param(IS_CAN_FILTER_SCALE(CAN_FilterInitStruct->CAN_FilterScale));
 299:../StdPeripheralDriver/src/stm32f10x_can.c ****   assert_param(IS_CAN_FILTER_FIFO(CAN_FilterInitStruct->CAN_FilterFIFOAssignment));
 300:../StdPeripheralDriver/src/stm32f10x_can.c ****   assert_param(IS_FUNCTIONAL_STATE(CAN_FilterInitStruct->CAN_FilterActivation));
 301:../StdPeripheralDriver/src/stm32f10x_can.c **** 
 302:../StdPeripheralDriver/src/stm32f10x_can.c ****   filter_number_bit_pos = ((uint32_t)1) << CAN_FilterInitStruct->CAN_FilterNumber;
 18437              		.loc 1 302 0
 18438 000e 7B68     		ldr	r3, [r7, #4]
 18439 0010 9B7A     		ldrb	r3, [r3, #10]	@ zero_extendqisi2
 18440 0012 4FF00102 		mov	r2, #1
 18441 0016 02FA03F3 		lsl	r3, r2, r3
 18442 001a FB60     		str	r3, [r7, #12]
 303:../StdPeripheralDriver/src/stm32f10x_can.c **** 
 304:../StdPeripheralDriver/src/stm32f10x_can.c ****   /* Initialisation mode for the filter */
 305:../StdPeripheralDriver/src/stm32f10x_can.c ****   CAN1->FMR |= FMR_FINIT;
 18443              		.loc 1 305 0
 18444 001c 5E4B     		ldr	r3, .L36
 18445 001e 5E4A     		ldr	r2, .L36
 18446 0020 D2F80022 		ldr	r2, [r2, #512]
 18447 0024 42F00102 		orr	r2, r2, #1
 18448 0028 C3F80022 		str	r2, [r3, #512]
 306:../StdPeripheralDriver/src/stm32f10x_can.c **** 
 307:../StdPeripheralDriver/src/stm32f10x_can.c ****   /* Filter Deactivation */
 308:../StdPeripheralDriver/src/stm32f10x_can.c ****   CAN1->FA1R &= ~(uint32_t)filter_number_bit_pos;
 18449              		.loc 1 308 0
 18450 002c 5A4B     		ldr	r3, .L36
 18451 002e 5A4A     		ldr	r2, .L36
 18452 0030 D2F81C12 		ldr	r1, [r2, #540]
 18453 0034 FA68     		ldr	r2, [r7, #12]
 18454 0036 6FEA0202 		mvn	r2, r2
 18455 003a 01EA0202 		and	r2, r1, r2
 18456 003e C3F81C22 		str	r2, [r3, #540]
 309:../StdPeripheralDriver/src/stm32f10x_can.c **** 
 310:../StdPeripheralDriver/src/stm32f10x_can.c ****   /* Filter Scale */
 311:../StdPeripheralDriver/src/stm32f10x_can.c ****   if (CAN_FilterInitStruct->CAN_FilterScale == CAN_FilterScale_16bit)
 18457              		.loc 1 311 0
 18458 0042 7B68     		ldr	r3, [r7, #4]
 18459 0044 1B7B     		ldrb	r3, [r3, #12]	@ zero_extendqisi2
 18460 0046 002B     		cmp	r3, #0
 18461 0048 2AD1     		bne	.L29
 312:../StdPeripheralDriver/src/stm32f10x_can.c ****   {
 313:../StdPeripheralDriver/src/stm32f10x_can.c ****     /* 16-bit scale for the filter */
 314:../StdPeripheralDriver/src/stm32f10x_can.c ****     CAN1->FS1R &= ~(uint32_t)filter_number_bit_pos;
 18462              		.loc 1 314 0
 18463 004a 534B     		ldr	r3, .L36
 18464 004c 524A     		ldr	r2, .L36
 18465 004e D2F80C12 		ldr	r1, [r2, #524]
 18466 0052 FA68     		ldr	r2, [r7, #12]
 18467 0054 6FEA0202 		mvn	r2, r2
 18468 0058 01EA0202 		and	r2, r1, r2
 18469 005c C3F80C22 		str	r2, [r3, #524]
 315:../StdPeripheralDriver/src/stm32f10x_can.c **** 
 316:../StdPeripheralDriver/src/stm32f10x_can.c ****     /* First 16-bit identifier and First 16-bit mask */
 317:../StdPeripheralDriver/src/stm32f10x_can.c ****     /* Or First 16-bit identifier and Second 16-bit identifier */
 318:../StdPeripheralDriver/src/stm32f10x_can.c ****     CAN1->sFilterRegister[CAN_FilterInitStruct->CAN_FilterNumber].FR1 = 
 18470              		.loc 1 318 0
 18471 0060 4D4B     		ldr	r3, .L36
 18472 0062 7A68     		ldr	r2, [r7, #4]
 18473 0064 927A     		ldrb	r2, [r2, #10]	@ zero_extendqisi2
 319:../StdPeripheralDriver/src/stm32f10x_can.c ****     ((0x0000FFFF & (uint32_t)CAN_FilterInitStruct->CAN_FilterMaskIdLow) << 16) |
 18474              		.loc 1 319 0
 18475 0066 7968     		ldr	r1, [r7, #4]
 18476 0068 C988     		ldrh	r1, [r1, #6]
 18477 006a 4FEA0140 		lsl	r0, r1, #16
 320:../StdPeripheralDriver/src/stm32f10x_can.c ****         (0x0000FFFF & (uint32_t)CAN_FilterInitStruct->CAN_FilterIdLow);
 18478              		.loc 1 320 0
 18479 006e 7968     		ldr	r1, [r7, #4]
 18480 0070 4988     		ldrh	r1, [r1, #2]
 319:../StdPeripheralDriver/src/stm32f10x_can.c ****     ((0x0000FFFF & (uint32_t)CAN_FilterInitStruct->CAN_FilterMaskIdLow) << 16) |
 18481              		.loc 1 319 0
 18482 0072 40EA0101 		orr	r1, r0, r1
 318:../StdPeripheralDriver/src/stm32f10x_can.c ****     CAN1->sFilterRegister[CAN_FilterInitStruct->CAN_FilterNumber].FR1 = 
 18483              		.loc 1 318 0
 18484 0076 02F14802 		add	r2, r2, #72
 18485 007a 43F83210 		str	r1, [r3, r2, lsl #3]
 321:../StdPeripheralDriver/src/stm32f10x_can.c **** 
 322:../StdPeripheralDriver/src/stm32f10x_can.c ****     /* Second 16-bit identifier and Second 16-bit mask */
 323:../StdPeripheralDriver/src/stm32f10x_can.c ****     /* Or Third 16-bit identifier and Fourth 16-bit identifier */
 324:../StdPeripheralDriver/src/stm32f10x_can.c ****     CAN1->sFilterRegister[CAN_FilterInitStruct->CAN_FilterNumber].FR2 = 
 18486              		.loc 1 324 0
 18487 007e 4649     		ldr	r1, .L36
 18488 0080 7B68     		ldr	r3, [r7, #4]
 18489 0082 9B7A     		ldrb	r3, [r3, #10]	@ zero_extendqisi2
 325:../StdPeripheralDriver/src/stm32f10x_can.c ****     ((0x0000FFFF & (uint32_t)CAN_FilterInitStruct->CAN_FilterMaskIdHigh) << 16) |
 18490              		.loc 1 325 0
 18491 0084 7A68     		ldr	r2, [r7, #4]
 18492 0086 9288     		ldrh	r2, [r2, #4]
 18493 0088 4FEA0240 		lsl	r0, r2, #16
 326:../StdPeripheralDriver/src/stm32f10x_can.c ****         (0x0000FFFF & (uint32_t)CAN_FilterInitStruct->CAN_FilterIdHigh);
 18494              		.loc 1 326 0
 18495 008c 7A68     		ldr	r2, [r7, #4]
 18496 008e 1288     		ldrh	r2, [r2, #0]
 325:../StdPeripheralDriver/src/stm32f10x_can.c ****     ((0x0000FFFF & (uint32_t)CAN_FilterInitStruct->CAN_FilterMaskIdHigh) << 16) |
 18497              		.loc 1 325 0
 18498 0090 40EA0202 		orr	r2, r0, r2
 324:../StdPeripheralDriver/src/stm32f10x_can.c ****     CAN1->sFilterRegister[CAN_FilterInitStruct->CAN_FilterNumber].FR2 = 
 18499              		.loc 1 324 0
 18500 0094 03F14803 		add	r3, r3, #72
 18501 0098 4FEAC303 		lsl	r3, r3, #3
 18502 009c CB18     		adds	r3, r1, r3
 18503 009e 5A60     		str	r2, [r3, #4]
 18504              	.L29:
 327:../StdPeripheralDriver/src/stm32f10x_can.c ****   }
 328:../StdPeripheralDriver/src/stm32f10x_can.c **** 
 329:../StdPeripheralDriver/src/stm32f10x_can.c ****   if (CAN_FilterInitStruct->CAN_FilterScale == CAN_FilterScale_32bit)
 18505              		.loc 1 329 0
 18506 00a0 7B68     		ldr	r3, [r7, #4]
 18507 00a2 1B7B     		ldrb	r3, [r3, #12]	@ zero_extendqisi2
 18508 00a4 012B     		cmp	r3, #1
 18509 00a6 28D1     		bne	.L30
 330:../StdPeripheralDriver/src/stm32f10x_can.c ****   {
 331:../StdPeripheralDriver/src/stm32f10x_can.c ****     /* 32-bit scale for the filter */
 332:../StdPeripheralDriver/src/stm32f10x_can.c ****     CAN1->FS1R |= filter_number_bit_pos;
 18510              		.loc 1 332 0
 18511 00a8 3B4B     		ldr	r3, .L36
 18512 00aa 3B4A     		ldr	r2, .L36
 18513 00ac D2F80C12 		ldr	r1, [r2, #524]
 18514 00b0 FA68     		ldr	r2, [r7, #12]
 18515 00b2 41EA0202 		orr	r2, r1, r2
 18516 00b6 C3F80C22 		str	r2, [r3, #524]
 333:../StdPeripheralDriver/src/stm32f10x_can.c ****     /* 32-bit identifier or First 32-bit identifier */
 334:../StdPeripheralDriver/src/stm32f10x_can.c ****     CAN1->sFilterRegister[CAN_FilterInitStruct->CAN_FilterNumber].FR1 = 
 18517              		.loc 1 334 0
 18518 00ba 374B     		ldr	r3, .L36
 18519 00bc 7A68     		ldr	r2, [r7, #4]
 18520 00be 927A     		ldrb	r2, [r2, #10]	@ zero_extendqisi2
 335:../StdPeripheralDriver/src/stm32f10x_can.c ****     ((0x0000FFFF & (uint32_t)CAN_FilterInitStruct->CAN_FilterIdHigh) << 16) |
 18521              		.loc 1 335 0
 18522 00c0 7968     		ldr	r1, [r7, #4]
 18523 00c2 0988     		ldrh	r1, [r1, #0]
 18524 00c4 4FEA0140 		lsl	r0, r1, #16
 336:../StdPeripheralDriver/src/stm32f10x_can.c ****         (0x0000FFFF & (uint32_t)CAN_FilterInitStruct->CAN_FilterIdLow);
 18525              		.loc 1 336 0
 18526 00c8 7968     		ldr	r1, [r7, #4]
 18527 00ca 4988     		ldrh	r1, [r1, #2]
 335:../StdPeripheralDriver/src/stm32f10x_can.c ****     ((0x0000FFFF & (uint32_t)CAN_FilterInitStruct->CAN_FilterIdHigh) << 16) |
 18528              		.loc 1 335 0
 18529 00cc 40EA0101 		orr	r1, r0, r1
 334:../StdPeripheralDriver/src/stm32f10x_can.c ****     CAN1->sFilterRegister[CAN_FilterInitStruct->CAN_FilterNumber].FR1 = 
 18530              		.loc 1 334 0
 18531 00d0 02F14802 		add	r2, r2, #72
 18532 00d4 43F83210 		str	r1, [r3, r2, lsl #3]
 337:../StdPeripheralDriver/src/stm32f10x_can.c ****     /* 32-bit mask or Second 32-bit identifier */
 338:../StdPeripheralDriver/src/stm32f10x_can.c ****     CAN1->sFilterRegister[CAN_FilterInitStruct->CAN_FilterNumber].FR2 = 
 18533              		.loc 1 338 0
 18534 00d8 2F49     		ldr	r1, .L36
 18535 00da 7B68     		ldr	r3, [r7, #4]
 18536 00dc 9B7A     		ldrb	r3, [r3, #10]	@ zero_extendqisi2
 339:../StdPeripheralDriver/src/stm32f10x_can.c ****     ((0x0000FFFF & (uint32_t)CAN_FilterInitStruct->CAN_FilterMaskIdHigh) << 16) |
 18537              		.loc 1 339 0
 18538 00de 7A68     		ldr	r2, [r7, #4]
 18539 00e0 9288     		ldrh	r2, [r2, #4]
 18540 00e2 4FEA0240 		lsl	r0, r2, #16
 340:../StdPeripheralDriver/src/stm32f10x_can.c ****         (0x0000FFFF & (uint32_t)CAN_FilterInitStruct->CAN_FilterMaskIdLow);
 18541              		.loc 1 340 0
 18542 00e6 7A68     		ldr	r2, [r7, #4]
 18543 00e8 D288     		ldrh	r2, [r2, #6]
 339:../StdPeripheralDriver/src/stm32f10x_can.c ****     ((0x0000FFFF & (uint32_t)CAN_FilterInitStruct->CAN_FilterMaskIdHigh) << 16) |
 18544              		.loc 1 339 0
 18545 00ea 40EA0202 		orr	r2, r0, r2
 338:../StdPeripheralDriver/src/stm32f10x_can.c ****     CAN1->sFilterRegister[CAN_FilterInitStruct->CAN_FilterNumber].FR2 = 
 18546              		.loc 1 338 0
 18547 00ee 03F14803 		add	r3, r3, #72
 18548 00f2 4FEAC303 		lsl	r3, r3, #3
 18549 00f6 CB18     		adds	r3, r1, r3
 18550 00f8 5A60     		str	r2, [r3, #4]
 18551              	.L30:
 341:../StdPeripheralDriver/src/stm32f10x_can.c ****   }
 342:../StdPeripheralDriver/src/stm32f10x_can.c **** 
 343:../StdPeripheralDriver/src/stm32f10x_can.c ****   /* Filter Mode */
 344:../StdPeripheralDriver/src/stm32f10x_can.c ****   if (CAN_FilterInitStruct->CAN_FilterMode == CAN_FilterMode_IdMask)
 18552              		.loc 1 344 0
 18553 00fa 7B68     		ldr	r3, [r7, #4]
 18554 00fc DB7A     		ldrb	r3, [r3, #11]	@ zero_extendqisi2
 18555 00fe 002B     		cmp	r3, #0
 18556 0100 0BD1     		bne	.L31
 345:../StdPeripheralDriver/src/stm32f10x_can.c ****   {
 346:../StdPeripheralDriver/src/stm32f10x_can.c ****     /*Id/Mask mode for the filter*/
 347:../StdPeripheralDriver/src/stm32f10x_can.c ****     CAN1->FM1R &= ~(uint32_t)filter_number_bit_pos;
 18557              		.loc 1 347 0
 18558 0102 254B     		ldr	r3, .L36
 18559 0104 244A     		ldr	r2, .L36
 18560 0106 D2F80412 		ldr	r1, [r2, #516]
 18561 010a FA68     		ldr	r2, [r7, #12]
 18562 010c 6FEA0202 		mvn	r2, r2
 18563 0110 01EA0202 		and	r2, r1, r2
 18564 0114 C3F80422 		str	r2, [r3, #516]
 18565 0118 08E0     		b	.L32
 18566              	.L31:
 348:../StdPeripheralDriver/src/stm32f10x_can.c ****   }
 349:../StdPeripheralDriver/src/stm32f10x_can.c ****   else /* CAN_FilterInitStruct->CAN_FilterMode == CAN_FilterMode_IdList */
 350:../StdPeripheralDriver/src/stm32f10x_can.c ****   {
 351:../StdPeripheralDriver/src/stm32f10x_can.c ****     /*Identifier list mode for the filter*/
 352:../StdPeripheralDriver/src/stm32f10x_can.c ****     CAN1->FM1R |= (uint32_t)filter_number_bit_pos;
 18567              		.loc 1 352 0
 18568 011a 1F4B     		ldr	r3, .L36
 18569 011c 1E4A     		ldr	r2, .L36
 18570 011e D2F80412 		ldr	r1, [r2, #516]
 18571 0122 FA68     		ldr	r2, [r7, #12]
 18572 0124 41EA0202 		orr	r2, r1, r2
 18573 0128 C3F80422 		str	r2, [r3, #516]
 18574              	.L32:
 353:../StdPeripheralDriver/src/stm32f10x_can.c ****   }
 354:../StdPeripheralDriver/src/stm32f10x_can.c **** 
 355:../StdPeripheralDriver/src/stm32f10x_can.c ****   /* Filter FIFO assignment */
 356:../StdPeripheralDriver/src/stm32f10x_can.c ****   if (CAN_FilterInitStruct->CAN_FilterFIFOAssignment == CAN_Filter_FIFO0)
 18575              		.loc 1 356 0
 18576 012c 7B68     		ldr	r3, [r7, #4]
 18577 012e 1B89     		ldrh	r3, [r3, #8]
 18578 0130 002B     		cmp	r3, #0
 18579 0132 0AD1     		bne	.L33
 357:../StdPeripheralDriver/src/stm32f10x_can.c ****   {
 358:../StdPeripheralDriver/src/stm32f10x_can.c ****     /* FIFO 0 assignation for the filter */
 359:../StdPeripheralDriver/src/stm32f10x_can.c ****     CAN1->FFA1R &= ~(uint32_t)filter_number_bit_pos;
 18580              		.loc 1 359 0
 18581 0134 184B     		ldr	r3, .L36
 18582 0136 184A     		ldr	r2, .L36
 18583 0138 D2F81412 		ldr	r1, [r2, #532]
 18584 013c FA68     		ldr	r2, [r7, #12]
 18585 013e 6FEA0202 		mvn	r2, r2
 18586 0142 01EA0202 		and	r2, r1, r2
 18587 0146 C3F81422 		str	r2, [r3, #532]
 18588              	.L33:
 360:../StdPeripheralDriver/src/stm32f10x_can.c ****   }
 361:../StdPeripheralDriver/src/stm32f10x_can.c **** 
 362:../StdPeripheralDriver/src/stm32f10x_can.c ****   if (CAN_FilterInitStruct->CAN_FilterFIFOAssignment == CAN_Filter_FIFO1)
 18589              		.loc 1 362 0
 18590 014a 7B68     		ldr	r3, [r7, #4]
 18591 014c 1B89     		ldrh	r3, [r3, #8]
 18592 014e 012B     		cmp	r3, #1
 18593 0150 08D1     		bne	.L34
 363:../StdPeripheralDriver/src/stm32f10x_can.c ****   {
 364:../StdPeripheralDriver/src/stm32f10x_can.c ****     /* FIFO 1 assignation for the filter */
 365:../StdPeripheralDriver/src/stm32f10x_can.c ****     CAN1->FFA1R |= (uint32_t)filter_number_bit_pos;
 18594              		.loc 1 365 0
 18595 0152 114B     		ldr	r3, .L36
 18596 0154 104A     		ldr	r2, .L36
 18597 0156 D2F81412 		ldr	r1, [r2, #532]
 18598 015a FA68     		ldr	r2, [r7, #12]
 18599 015c 41EA0202 		orr	r2, r1, r2
 18600 0160 C3F81422 		str	r2, [r3, #532]
 18601              	.L34:
 366:../StdPeripheralDriver/src/stm32f10x_can.c ****   }
 367:../StdPeripheralDriver/src/stm32f10x_can.c ****   
 368:../StdPeripheralDriver/src/stm32f10x_can.c ****   /* Filter activation */
 369:../StdPeripheralDriver/src/stm32f10x_can.c ****   if (CAN_FilterInitStruct->CAN_FilterActivation == ENABLE)
 18602              		.loc 1 369 0
 18603 0164 7B68     		ldr	r3, [r7, #4]
 18604 0166 5B7B     		ldrb	r3, [r3, #13]	@ zero_extendqisi2
 18605 0168 012B     		cmp	r3, #1
 18606 016a 08D1     		bne	.L35
 370:../StdPeripheralDriver/src/stm32f10x_can.c ****   {
 371:../StdPeripheralDriver/src/stm32f10x_can.c ****     CAN1->FA1R |= filter_number_bit_pos;
 18607              		.loc 1 371 0
 18608 016c 0A4B     		ldr	r3, .L36
 18609 016e 0A4A     		ldr	r2, .L36
 18610 0170 D2F81C12 		ldr	r1, [r2, #540]
 18611 0174 FA68     		ldr	r2, [r7, #12]
 18612 0176 41EA0202 		orr	r2, r1, r2
 18613 017a C3F81C22 		str	r2, [r3, #540]
 18614              	.L35:
 372:../StdPeripheralDriver/src/stm32f10x_can.c ****   }
 373:../StdPeripheralDriver/src/stm32f10x_can.c **** 
 374:../StdPeripheralDriver/src/stm32f10x_can.c ****   /* Leave the initialisation mode for the filter */
 375:../StdPeripheralDriver/src/stm32f10x_can.c ****   CAN1->FMR &= ~FMR_FINIT;
 18615              		.loc 1 375 0
 18616 017e 064B     		ldr	r3, .L36
 18617 0180 054A     		ldr	r2, .L36
 18618 0182 D2F80022 		ldr	r2, [r2, #512]
 18619 0186 22F00102 		bic	r2, r2, #1
 18620 018a C3F80022 		str	r2, [r3, #512]
 376:../StdPeripheralDriver/src/stm32f10x_can.c **** }
 18621              		.loc 1 376 0
 18622 018e 07F11407 		add	r7, r7, #20
 18623 0192 BD46     		mov	sp, r7
 18624 0194 80BC     		pop	{r7}
 18625 0196 7047     		bx	lr
 18626              	.L37:
 18627              		.align	2
 18628              	.L36:
 18629 0198 00640040 		.word	1073767424
 18630              		.cfi_endproc
 18631              	.LFE31:
 18633              		.section	.text.CAN_StructInit,"ax",%progbits
 18634              		.align	2
 18635              		.global	CAN_StructInit
 18636              		.thumb
 18637              		.thumb_func
 18639              	CAN_StructInit:
 18640              	.LFB32:
 377:../StdPeripheralDriver/src/stm32f10x_can.c **** 
 378:../StdPeripheralDriver/src/stm32f10x_can.c **** /**
 379:../StdPeripheralDriver/src/stm32f10x_can.c ****   * @brief  Fills each CAN_InitStruct member with its default value.
 380:../StdPeripheralDriver/src/stm32f10x_can.c ****   * @param  CAN_InitStruct: pointer to a CAN_InitTypeDef structure which
 381:../StdPeripheralDriver/src/stm32f10x_can.c ****   *                         will be initialized.
 382:../StdPeripheralDriver/src/stm32f10x_can.c ****   * @retval None.
 383:../StdPeripheralDriver/src/stm32f10x_can.c ****   */
 384:../StdPeripheralDriver/src/stm32f10x_can.c **** void CAN_StructInit(CAN_InitTypeDef* CAN_InitStruct)
 385:../StdPeripheralDriver/src/stm32f10x_can.c **** {
 18641              		.loc 1 385 0
 18642              		.cfi_startproc
 18643              		@ args = 0, pretend = 0, frame = 8
 18644              		@ frame_needed = 1, uses_anonymous_args = 0
 18645              		@ link register save eliminated.
 18646 0000 80B4     		push	{r7}
 18647              	.LCFI9:
 18648              		.cfi_def_cfa_offset 4
 18649 0002 83B0     		sub	sp, sp, #12
 18650              	.LCFI10:
 18651              		.cfi_def_cfa_offset 16
 18652 0004 00AF     		add	r7, sp, #0
 18653              		.cfi_offset 7, -4
 18654              	.LCFI11:
 18655              		.cfi_def_cfa_register 7
 18656 0006 7860     		str	r0, [r7, #4]
 386:../StdPeripheralDriver/src/stm32f10x_can.c ****   /* Reset CAN init structure parameters values */
 387:../StdPeripheralDriver/src/stm32f10x_can.c ****   
 388:../StdPeripheralDriver/src/stm32f10x_can.c ****   /* Initialize the time triggered communication mode */
 389:../StdPeripheralDriver/src/stm32f10x_can.c ****   CAN_InitStruct->CAN_TTCM = DISABLE;
 18657              		.loc 1 389 0
 18658 0008 7B68     		ldr	r3, [r7, #4]
 18659 000a 4FF00002 		mov	r2, #0
 18660 000e 9A71     		strb	r2, [r3, #6]
 390:../StdPeripheralDriver/src/stm32f10x_can.c ****   
 391:../StdPeripheralDriver/src/stm32f10x_can.c ****   /* Initialize the automatic bus-off management */
 392:../StdPeripheralDriver/src/stm32f10x_can.c ****   CAN_InitStruct->CAN_ABOM = DISABLE;
 18661              		.loc 1 392 0
 18662 0010 7B68     		ldr	r3, [r7, #4]
 18663 0012 4FF00002 		mov	r2, #0
 18664 0016 DA71     		strb	r2, [r3, #7]
 393:../StdPeripheralDriver/src/stm32f10x_can.c ****   
 394:../StdPeripheralDriver/src/stm32f10x_can.c ****   /* Initialize the automatic wake-up mode */
 395:../StdPeripheralDriver/src/stm32f10x_can.c ****   CAN_InitStruct->CAN_AWUM = DISABLE;
 18665              		.loc 1 395 0
 18666 0018 7B68     		ldr	r3, [r7, #4]
 18667 001a 4FF00002 		mov	r2, #0
 18668 001e 1A72     		strb	r2, [r3, #8]
 396:../StdPeripheralDriver/src/stm32f10x_can.c ****   
 397:../StdPeripheralDriver/src/stm32f10x_can.c ****   /* Initialize the no automatic retransmission */
 398:../StdPeripheralDriver/src/stm32f10x_can.c ****   CAN_InitStruct->CAN_NART = DISABLE;
 18669              		.loc 1 398 0
 18670 0020 7B68     		ldr	r3, [r7, #4]
 18671 0022 4FF00002 		mov	r2, #0
 18672 0026 5A72     		strb	r2, [r3, #9]
 399:../StdPeripheralDriver/src/stm32f10x_can.c ****   
 400:../StdPeripheralDriver/src/stm32f10x_can.c ****   /* Initialize the receive FIFO locked mode */
 401:../StdPeripheralDriver/src/stm32f10x_can.c ****   CAN_InitStruct->CAN_RFLM = DISABLE;
 18673              		.loc 1 401 0
 18674 0028 7B68     		ldr	r3, [r7, #4]
 18675 002a 4FF00002 		mov	r2, #0
 18676 002e 9A72     		strb	r2, [r3, #10]
 402:../StdPeripheralDriver/src/stm32f10x_can.c ****   
 403:../StdPeripheralDriver/src/stm32f10x_can.c ****   /* Initialize the transmit FIFO priority */
 404:../StdPeripheralDriver/src/stm32f10x_can.c ****   CAN_InitStruct->CAN_TXFP = DISABLE;
 18677              		.loc 1 404 0
 18678 0030 7B68     		ldr	r3, [r7, #4]
 18679 0032 4FF00002 		mov	r2, #0
 18680 0036 DA72     		strb	r2, [r3, #11]
 405:../StdPeripheralDriver/src/stm32f10x_can.c ****   
 406:../StdPeripheralDriver/src/stm32f10x_can.c ****   /* Initialize the CAN_Mode member */
 407:../StdPeripheralDriver/src/stm32f10x_can.c ****   CAN_InitStruct->CAN_Mode = CAN_Mode_Normal;
 18681              		.loc 1 407 0
 18682 0038 7B68     		ldr	r3, [r7, #4]
 18683 003a 4FF00002 		mov	r2, #0
 18684 003e 9A70     		strb	r2, [r3, #2]
 408:../StdPeripheralDriver/src/stm32f10x_can.c ****   
 409:../StdPeripheralDriver/src/stm32f10x_can.c ****   /* Initialize the CAN_SJW member */
 410:../StdPeripheralDriver/src/stm32f10x_can.c ****   CAN_InitStruct->CAN_SJW = CAN_SJW_1tq;
 18685              		.loc 1 410 0
 18686 0040 7B68     		ldr	r3, [r7, #4]
 18687 0042 4FF00002 		mov	r2, #0
 18688 0046 DA70     		strb	r2, [r3, #3]
 411:../StdPeripheralDriver/src/stm32f10x_can.c ****   
 412:../StdPeripheralDriver/src/stm32f10x_can.c ****   /* Initialize the CAN_BS1 member */
 413:../StdPeripheralDriver/src/stm32f10x_can.c ****   CAN_InitStruct->CAN_BS1 = CAN_BS1_4tq;
 18689              		.loc 1 413 0
 18690 0048 7B68     		ldr	r3, [r7, #4]
 18691 004a 4FF00302 		mov	r2, #3
 18692 004e 1A71     		strb	r2, [r3, #4]
 414:../StdPeripheralDriver/src/stm32f10x_can.c ****   
 415:../StdPeripheralDriver/src/stm32f10x_can.c ****   /* Initialize the CAN_BS2 member */
 416:../StdPeripheralDriver/src/stm32f10x_can.c ****   CAN_InitStruct->CAN_BS2 = CAN_BS2_3tq;
 18693              		.loc 1 416 0
 18694 0050 7B68     		ldr	r3, [r7, #4]
 18695 0052 4FF00202 		mov	r2, #2
 18696 0056 5A71     		strb	r2, [r3, #5]
 417:../StdPeripheralDriver/src/stm32f10x_can.c ****   
 418:../StdPeripheralDriver/src/stm32f10x_can.c ****   /* Initialize the CAN_Prescaler member */
 419:../StdPeripheralDriver/src/stm32f10x_can.c ****   CAN_InitStruct->CAN_Prescaler = 1;
 18697              		.loc 1 419 0
 18698 0058 7B68     		ldr	r3, [r7, #4]
 18699 005a 4FF00102 		mov	r2, #1
 18700 005e 1A80     		strh	r2, [r3, #0]	@ movhi
 420:../StdPeripheralDriver/src/stm32f10x_can.c **** }
 18701              		.loc 1 420 0
 18702 0060 07F10C07 		add	r7, r7, #12
 18703 0064 BD46     		mov	sp, r7
 18704 0066 80BC     		pop	{r7}
 18705 0068 7047     		bx	lr
 18706              		.cfi_endproc
 18707              	.LFE32:
 18709 006a 00BF     		.section	.text.CAN_SlaveStartBank,"ax",%progbits
 18710              		.align	2
 18711              		.global	CAN_SlaveStartBank
 18712              		.thumb
 18713              		.thumb_func
 18715              	CAN_SlaveStartBank:
 18716              	.LFB33:
 421:../StdPeripheralDriver/src/stm32f10x_can.c **** 
 422:../StdPeripheralDriver/src/stm32f10x_can.c **** /**
 423:../StdPeripheralDriver/src/stm32f10x_can.c ****   * @brief  Select the start bank filter for slave CAN.
 424:../StdPeripheralDriver/src/stm32f10x_can.c ****   * @note   This function applies only to STM32 Connectivity line devices.
 425:../StdPeripheralDriver/src/stm32f10x_can.c ****   * @param  CAN_BankNumber: Select the start slave bank filter from 1..27.
 426:../StdPeripheralDriver/src/stm32f10x_can.c ****   * @retval None.
 427:../StdPeripheralDriver/src/stm32f10x_can.c ****   */
 428:../StdPeripheralDriver/src/stm32f10x_can.c **** void CAN_SlaveStartBank(uint8_t CAN_BankNumber) 
 429:../StdPeripheralDriver/src/stm32f10x_can.c **** {
 18717              		.loc 1 429 0
 18718              		.cfi_startproc
 18719              		@ args = 0, pretend = 0, frame = 8
 18720              		@ frame_needed = 1, uses_anonymous_args = 0
 18721              		@ link register save eliminated.
 18722 0000 80B4     		push	{r7}
 18723              	.LCFI12:
 18724              		.cfi_def_cfa_offset 4
 18725 0002 83B0     		sub	sp, sp, #12
 18726              	.LCFI13:
 18727              		.cfi_def_cfa_offset 16
 18728 0004 00AF     		add	r7, sp, #0
 18729              		.cfi_offset 7, -4
 18730              	.LCFI14:
 18731              		.cfi_def_cfa_register 7
 18732 0006 0346     		mov	r3, r0
 18733 0008 FB71     		strb	r3, [r7, #7]
 430:../StdPeripheralDriver/src/stm32f10x_can.c ****   /* Check the parameters */
 431:../StdPeripheralDriver/src/stm32f10x_can.c ****   assert_param(IS_CAN_BANKNUMBER(CAN_BankNumber));
 432:../StdPeripheralDriver/src/stm32f10x_can.c ****   
 433:../StdPeripheralDriver/src/stm32f10x_can.c ****   /* Enter Initialisation mode for the filter */
 434:../StdPeripheralDriver/src/stm32f10x_can.c ****   CAN1->FMR |= FMR_FINIT;
 18734              		.loc 1 434 0
 18735 000a 154B     		ldr	r3, .L40
 18736 000c 144A     		ldr	r2, .L40
 18737 000e D2F80022 		ldr	r2, [r2, #512]
 18738 0012 42F00102 		orr	r2, r2, #1
 18739 0016 C3F80022 		str	r2, [r3, #512]
 435:../StdPeripheralDriver/src/stm32f10x_can.c ****   
 436:../StdPeripheralDriver/src/stm32f10x_can.c ****   /* Select the start slave bank */
 437:../StdPeripheralDriver/src/stm32f10x_can.c ****   CAN1->FMR &= (uint32_t)0xFFFFC0F1 ;
 18740              		.loc 1 437 0
 18741 001a 114A     		ldr	r2, .L40
 18742 001c 104B     		ldr	r3, .L40
 18743 001e D3F80032 		ldr	r3, [r3, #512]
 18744 0022 23F47C53 		bic	r3, r3, #16128
 18745 0026 23F00E03 		bic	r3, r3, #14
 18746 002a C2F80032 		str	r3, [r2, #512]
 438:../StdPeripheralDriver/src/stm32f10x_can.c ****   CAN1->FMR |= (uint32_t)(CAN_BankNumber)<<8;
 18747              		.loc 1 438 0
 18748 002e 0C4B     		ldr	r3, .L40
 18749 0030 0B4A     		ldr	r2, .L40
 18750 0032 D2F80012 		ldr	r1, [r2, #512]
 18751 0036 FA79     		ldrb	r2, [r7, #7]	@ zero_extendqisi2
 18752 0038 4FEA0222 		lsl	r2, r2, #8
 18753 003c 41EA0202 		orr	r2, r1, r2
 18754 0040 C3F80022 		str	r2, [r3, #512]
 439:../StdPeripheralDriver/src/stm32f10x_can.c ****   
 440:../StdPeripheralDriver/src/stm32f10x_can.c ****   /* Leave Initialisation mode for the filter */
 441:../StdPeripheralDriver/src/stm32f10x_can.c ****   CAN1->FMR &= ~FMR_FINIT;
 18755              		.loc 1 441 0
 18756 0044 064B     		ldr	r3, .L40
 18757 0046 064A     		ldr	r2, .L40
 18758 0048 D2F80022 		ldr	r2, [r2, #512]
 18759 004c 22F00102 		bic	r2, r2, #1
 18760 0050 C3F80022 		str	r2, [r3, #512]
 442:../StdPeripheralDriver/src/stm32f10x_can.c **** }
 18761              		.loc 1 442 0
 18762 0054 07F10C07 		add	r7, r7, #12
 18763 0058 BD46     		mov	sp, r7
 18764 005a 80BC     		pop	{r7}
 18765 005c 7047     		bx	lr
 18766              	.L41:
 18767 005e 00BF     		.align	2
 18768              	.L40:
 18769 0060 00640040 		.word	1073767424
 18770              		.cfi_endproc
 18771              	.LFE33:
 18773              		.section	.text.CAN_DBGFreeze,"ax",%progbits
 18774              		.align	2
 18775              		.global	CAN_DBGFreeze
 18776              		.thumb
 18777              		.thumb_func
 18779              	CAN_DBGFreeze:
 18780              	.LFB34:
 443:../StdPeripheralDriver/src/stm32f10x_can.c **** 
 444:../StdPeripheralDriver/src/stm32f10x_can.c **** /**
 445:../StdPeripheralDriver/src/stm32f10x_can.c ****   * @brief  Enables or disables the DBG Freeze for CAN.
 446:../StdPeripheralDriver/src/stm32f10x_can.c ****   * @param  CANx:     where x can be 1 or 2 to to select the CAN peripheral.
 447:../StdPeripheralDriver/src/stm32f10x_can.c ****   * @param  NewState: new state of the CAN peripheral. This parameter can 
 448:../StdPeripheralDriver/src/stm32f10x_can.c ****   *                   be: ENABLE or DISABLE.
 449:../StdPeripheralDriver/src/stm32f10x_can.c ****   * @retval None.
 450:../StdPeripheralDriver/src/stm32f10x_can.c ****   */
 451:../StdPeripheralDriver/src/stm32f10x_can.c **** void CAN_DBGFreeze(CAN_TypeDef* CANx, FunctionalState NewState)
 452:../StdPeripheralDriver/src/stm32f10x_can.c **** {
 18781              		.loc 1 452 0
 18782              		.cfi_startproc
 18783              		@ args = 0, pretend = 0, frame = 8
 18784              		@ frame_needed = 1, uses_anonymous_args = 0
 18785              		@ link register save eliminated.
 18786 0000 80B4     		push	{r7}
 18787              	.LCFI15:
 18788              		.cfi_def_cfa_offset 4
 18789 0002 83B0     		sub	sp, sp, #12
 18790              	.LCFI16:
 18791              		.cfi_def_cfa_offset 16
 18792 0004 00AF     		add	r7, sp, #0
 18793              		.cfi_offset 7, -4
 18794              	.LCFI17:
 18795              		.cfi_def_cfa_register 7
 18796 0006 7860     		str	r0, [r7, #4]
 18797 0008 0B46     		mov	r3, r1
 18798 000a FB70     		strb	r3, [r7, #3]
 453:../StdPeripheralDriver/src/stm32f10x_can.c ****   /* Check the parameters */
 454:../StdPeripheralDriver/src/stm32f10x_can.c ****   assert_param(IS_CAN_ALL_PERIPH(CANx));
 455:../StdPeripheralDriver/src/stm32f10x_can.c ****   assert_param(IS_FUNCTIONAL_STATE(NewState));
 456:../StdPeripheralDriver/src/stm32f10x_can.c ****   
 457:../StdPeripheralDriver/src/stm32f10x_can.c ****   if (NewState != DISABLE)
 18799              		.loc 1 457 0
 18800 000c FB78     		ldrb	r3, [r7, #3]	@ zero_extendqisi2
 18801 000e 002B     		cmp	r3, #0
 18802 0010 06D0     		beq	.L43
 458:../StdPeripheralDriver/src/stm32f10x_can.c ****   {
 459:../StdPeripheralDriver/src/stm32f10x_can.c ****     /* Enable Debug Freeze  */
 460:../StdPeripheralDriver/src/stm32f10x_can.c ****     CANx->MCR |= MCR_DBF;
 18803              		.loc 1 460 0
 18804 0012 7B68     		ldr	r3, [r7, #4]
 18805 0014 1B68     		ldr	r3, [r3, #0]
 18806 0016 43F48032 		orr	r2, r3, #65536
 18807 001a 7B68     		ldr	r3, [r7, #4]
 18808 001c 1A60     		str	r2, [r3, #0]
 18809 001e 05E0     		b	.L42
 18810              	.L43:
 461:../StdPeripheralDriver/src/stm32f10x_can.c ****   }
 462:../StdPeripheralDriver/src/stm32f10x_can.c ****   else
 463:../StdPeripheralDriver/src/stm32f10x_can.c ****   {
 464:../StdPeripheralDriver/src/stm32f10x_can.c ****     /* Disable Debug Freeze */
 465:../StdPeripheralDriver/src/stm32f10x_can.c ****     CANx->MCR &= ~MCR_DBF;
 18811              		.loc 1 465 0
 18812 0020 7B68     		ldr	r3, [r7, #4]
 18813 0022 1B68     		ldr	r3, [r3, #0]
 18814 0024 23F48032 		bic	r2, r3, #65536
 18815 0028 7B68     		ldr	r3, [r7, #4]
 18816 002a 1A60     		str	r2, [r3, #0]
 18817              	.L42:
 466:../StdPeripheralDriver/src/stm32f10x_can.c ****   }
 467:../StdPeripheralDriver/src/stm32f10x_can.c **** }
 18818              		.loc 1 467 0
 18819 002c 07F10C07 		add	r7, r7, #12
 18820 0030 BD46     		mov	sp, r7
 18821 0032 80BC     		pop	{r7}
 18822 0034 7047     		bx	lr
 18823              		.cfi_endproc
 18824              	.LFE34:
 18826 0036 00BF     		.section	.text.CAN_TTComModeCmd,"ax",%progbits
 18827              		.align	2
 18828              		.global	CAN_TTComModeCmd
 18829              		.thumb
 18830              		.thumb_func
 18832              	CAN_TTComModeCmd:
 18833              	.LFB35:
 468:../StdPeripheralDriver/src/stm32f10x_can.c **** 
 469:../StdPeripheralDriver/src/stm32f10x_can.c **** 
 470:../StdPeripheralDriver/src/stm32f10x_can.c **** /**
 471:../StdPeripheralDriver/src/stm32f10x_can.c ****   * @brief  Enables or disabes the CAN Time TriggerOperation communication mode.
 472:../StdPeripheralDriver/src/stm32f10x_can.c ****   * @param  CANx:      where x can be 1 or 2 to to select the CAN peripheral.
 473:../StdPeripheralDriver/src/stm32f10x_can.c ****   * @param  NewState : Mode new state , can be one of @ref FunctionalState.
 474:../StdPeripheralDriver/src/stm32f10x_can.c ****   * @note   when enabled, Time stamp (TIME[15:0]) value is sent in the last 
 475:../StdPeripheralDriver/src/stm32f10x_can.c ****   *         two data bytes of the 8-byte message: TIME[7:0] in data byte 6 
 476:../StdPeripheralDriver/src/stm32f10x_can.c ****   *         and TIME[15:8] in data byte 7 
 477:../StdPeripheralDriver/src/stm32f10x_can.c ****   * @note   DLC must be programmed as 8 in order Time Stamp (2 bytes) to be 
 478:../StdPeripheralDriver/src/stm32f10x_can.c ****   *         sent over the CAN bus.  
 479:../StdPeripheralDriver/src/stm32f10x_can.c ****   * @retval None
 480:../StdPeripheralDriver/src/stm32f10x_can.c ****   */
 481:../StdPeripheralDriver/src/stm32f10x_can.c **** void CAN_TTComModeCmd(CAN_TypeDef* CANx, FunctionalState NewState)
 482:../StdPeripheralDriver/src/stm32f10x_can.c **** {
 18834              		.loc 1 482 0
 18835              		.cfi_startproc
 18836              		@ args = 0, pretend = 0, frame = 8
 18837              		@ frame_needed = 1, uses_anonymous_args = 0
 18838              		@ link register save eliminated.
 18839 0000 80B4     		push	{r7}
 18840              	.LCFI18:
 18841              		.cfi_def_cfa_offset 4
 18842 0002 83B0     		sub	sp, sp, #12
 18843              	.LCFI19:
 18844              		.cfi_def_cfa_offset 16
 18845 0004 00AF     		add	r7, sp, #0
 18846              		.cfi_offset 7, -4
 18847              	.LCFI20:
 18848              		.cfi_def_cfa_register 7
 18849 0006 7860     		str	r0, [r7, #4]
 18850 0008 0B46     		mov	r3, r1
 18851 000a FB70     		strb	r3, [r7, #3]
 483:../StdPeripheralDriver/src/stm32f10x_can.c ****   /* Check the parameters */
 484:../StdPeripheralDriver/src/stm32f10x_can.c ****   assert_param(IS_CAN_ALL_PERIPH(CANx));
 485:../StdPeripheralDriver/src/stm32f10x_can.c ****   assert_param(IS_FUNCTIONAL_STATE(NewState));
 486:../StdPeripheralDriver/src/stm32f10x_can.c ****   if (NewState != DISABLE)
 18852              		.loc 1 486 0
 18853 000c FB78     		ldrb	r3, [r7, #3]	@ zero_extendqisi2
 18854 000e 002B     		cmp	r3, #0
 18855 0010 1ED0     		beq	.L46
 487:../StdPeripheralDriver/src/stm32f10x_can.c ****   {
 488:../StdPeripheralDriver/src/stm32f10x_can.c ****     /* Enable the TTCM mode */
 489:../StdPeripheralDriver/src/stm32f10x_can.c ****     CANx->MCR |= CAN_MCR_TTCM;
 18856              		.loc 1 489 0
 18857 0012 7B68     		ldr	r3, [r7, #4]
 18858 0014 1B68     		ldr	r3, [r3, #0]
 18859 0016 43F08002 		orr	r2, r3, #128
 18860 001a 7B68     		ldr	r3, [r7, #4]
 18861 001c 1A60     		str	r2, [r3, #0]
 490:../StdPeripheralDriver/src/stm32f10x_can.c **** 
 491:../StdPeripheralDriver/src/stm32f10x_can.c ****     /* Set TGT bits */
 492:../StdPeripheralDriver/src/stm32f10x_can.c ****     CANx->sTxMailBox[0].TDTR |= ((uint32_t)CAN_TDT0R_TGT);
 18862              		.loc 1 492 0
 18863 001e 7B68     		ldr	r3, [r7, #4]
 18864 0020 D3F88431 		ldr	r3, [r3, #388]
 18865 0024 43F48072 		orr	r2, r3, #256
 18866 0028 7B68     		ldr	r3, [r7, #4]
 18867 002a C3F88421 		str	r2, [r3, #388]
 493:../StdPeripheralDriver/src/stm32f10x_can.c ****     CANx->sTxMailBox[1].TDTR |= ((uint32_t)CAN_TDT1R_TGT);
 18868              		.loc 1 493 0
 18869 002e 7B68     		ldr	r3, [r7, #4]
 18870 0030 D3F89431 		ldr	r3, [r3, #404]
 18871 0034 43F48072 		orr	r2, r3, #256
 18872 0038 7B68     		ldr	r3, [r7, #4]
 18873 003a C3F89421 		str	r2, [r3, #404]
 494:../StdPeripheralDriver/src/stm32f10x_can.c ****     CANx->sTxMailBox[2].TDTR |= ((uint32_t)CAN_TDT2R_TGT);
 18874              		.loc 1 494 0
 18875 003e 7B68     		ldr	r3, [r7, #4]
 18876 0040 D3F8A431 		ldr	r3, [r3, #420]
 18877 0044 43F48072 		orr	r2, r3, #256
 18878 0048 7B68     		ldr	r3, [r7, #4]
 18879 004a C3F8A421 		str	r2, [r3, #420]
 18880 004e 1DE0     		b	.L45
 18881              	.L46:
 495:../StdPeripheralDriver/src/stm32f10x_can.c ****   }
 496:../StdPeripheralDriver/src/stm32f10x_can.c ****   else
 497:../StdPeripheralDriver/src/stm32f10x_can.c ****   {
 498:../StdPeripheralDriver/src/stm32f10x_can.c ****     /* Disable the TTCM mode */
 499:../StdPeripheralDriver/src/stm32f10x_can.c ****     CANx->MCR &= (uint32_t)(~(uint32_t)CAN_MCR_TTCM);
 18882              		.loc 1 499 0
 18883 0050 7B68     		ldr	r3, [r7, #4]
 18884 0052 1B68     		ldr	r3, [r3, #0]
 18885 0054 23F08002 		bic	r2, r3, #128
 18886 0058 7B68     		ldr	r3, [r7, #4]
 18887 005a 1A60     		str	r2, [r3, #0]
 500:../StdPeripheralDriver/src/stm32f10x_can.c **** 
 501:../StdPeripheralDriver/src/stm32f10x_can.c ****     /* Reset TGT bits */
 502:../StdPeripheralDriver/src/stm32f10x_can.c ****     CANx->sTxMailBox[0].TDTR &= ((uint32_t)~CAN_TDT0R_TGT);
 18888              		.loc 1 502 0
 18889 005c 7B68     		ldr	r3, [r7, #4]
 18890 005e D3F88431 		ldr	r3, [r3, #388]
 18891 0062 23F48072 		bic	r2, r3, #256
 18892 0066 7B68     		ldr	r3, [r7, #4]
 18893 0068 C3F88421 		str	r2, [r3, #388]
 503:../StdPeripheralDriver/src/stm32f10x_can.c ****     CANx->sTxMailBox[1].TDTR &= ((uint32_t)~CAN_TDT1R_TGT);
 18894              		.loc 1 503 0
 18895 006c 7B68     		ldr	r3, [r7, #4]
 18896 006e D3F89431 		ldr	r3, [r3, #404]
 18897 0072 23F48072 		bic	r2, r3, #256
 18898 0076 7B68     		ldr	r3, [r7, #4]
 18899 0078 C3F89421 		str	r2, [r3, #404]
 504:../StdPeripheralDriver/src/stm32f10x_can.c ****     CANx->sTxMailBox[2].TDTR &= ((uint32_t)~CAN_TDT2R_TGT);
 18900              		.loc 1 504 0
 18901 007c 7B68     		ldr	r3, [r7, #4]
 18902 007e D3F8A431 		ldr	r3, [r3, #420]
 18903 0082 23F48072 		bic	r2, r3, #256
 18904 0086 7B68     		ldr	r3, [r7, #4]
 18905 0088 C3F8A421 		str	r2, [r3, #420]
 18906              	.L45:
 505:../StdPeripheralDriver/src/stm32f10x_can.c ****   }
 506:../StdPeripheralDriver/src/stm32f10x_can.c **** }
 18907              		.loc 1 506 0
 18908 008c 07F10C07 		add	r7, r7, #12
 18909 0090 BD46     		mov	sp, r7
 18910 0092 80BC     		pop	{r7}
 18911 0094 7047     		bx	lr
 18912              		.cfi_endproc
 18913              	.LFE35:
 18915 0096 00BF     		.section	.text.CAN_Transmit,"ax",%progbits
 18916              		.align	2
 18917              		.global	CAN_Transmit
 18918              		.thumb
 18919              		.thumb_func
 18921              	CAN_Transmit:
 18922              	.LFB36:
 507:../StdPeripheralDriver/src/stm32f10x_can.c **** /**
 508:../StdPeripheralDriver/src/stm32f10x_can.c ****   * @brief  Initiates the transmission of a message.
 509:../StdPeripheralDriver/src/stm32f10x_can.c ****   * @param  CANx:      where x can be 1 or 2 to to select the CAN peripheral.
 510:../StdPeripheralDriver/src/stm32f10x_can.c ****   * @param  TxMessage: pointer to a structure which contains CAN Id, CAN
 511:../StdPeripheralDriver/src/stm32f10x_can.c ****   *                    DLC and CAN data.
 512:../StdPeripheralDriver/src/stm32f10x_can.c ****   * @retval The number of the mailbox that is used for transmission
 513:../StdPeripheralDriver/src/stm32f10x_can.c ****   *                    or CAN_TxStatus_NoMailBox if there is no empty mailbox.
 514:../StdPeripheralDriver/src/stm32f10x_can.c ****   */
 515:../StdPeripheralDriver/src/stm32f10x_can.c **** uint8_t CAN_Transmit(CAN_TypeDef* CANx, CanTxMsg* TxMessage)
 516:../StdPeripheralDriver/src/stm32f10x_can.c **** {
 18923              		.loc 1 516 0
 18924              		.cfi_startproc
 18925              		@ args = 0, pretend = 0, frame = 16
 18926              		@ frame_needed = 1, uses_anonymous_args = 0
 18927              		@ link register save eliminated.
 18928 0000 80B4     		push	{r7}
 18929              	.LCFI21:
 18930              		.cfi_def_cfa_offset 4
 18931 0002 85B0     		sub	sp, sp, #20
 18932              	.LCFI22:
 18933              		.cfi_def_cfa_offset 24
 18934 0004 00AF     		add	r7, sp, #0
 18935              		.cfi_offset 7, -4
 18936              	.LCFI23:
 18937              		.cfi_def_cfa_register 7
 18938 0006 7860     		str	r0, [r7, #4]
 18939 0008 3960     		str	r1, [r7, #0]
 517:../StdPeripheralDriver/src/stm32f10x_can.c ****   uint8_t transmit_mailbox = 0;
 18940              		.loc 1 517 0
 18941 000a 4FF00003 		mov	r3, #0
 18942 000e FB73     		strb	r3, [r7, #15]
 518:../StdPeripheralDriver/src/stm32f10x_can.c ****   /* Check the parameters */
 519:../StdPeripheralDriver/src/stm32f10x_can.c ****   assert_param(IS_CAN_ALL_PERIPH(CANx));
 520:../StdPeripheralDriver/src/stm32f10x_can.c ****   assert_param(IS_CAN_IDTYPE(TxMessage->IDE));
 521:../StdPeripheralDriver/src/stm32f10x_can.c ****   assert_param(IS_CAN_RTR(TxMessage->RTR));
 522:../StdPeripheralDriver/src/stm32f10x_can.c ****   assert_param(IS_CAN_DLC(TxMessage->DLC));
 523:../StdPeripheralDriver/src/stm32f10x_can.c **** 
 524:../StdPeripheralDriver/src/stm32f10x_can.c ****   /* Select one empty transmit mailbox */
 525:../StdPeripheralDriver/src/stm32f10x_can.c ****   if ((CANx->TSR&CAN_TSR_TME0) == CAN_TSR_TME0)
 18943              		.loc 1 525 0
 18944 0010 7B68     		ldr	r3, [r7, #4]
 18945 0012 9B68     		ldr	r3, [r3, #8]
 18946 0014 03F08063 		and	r3, r3, #67108864
 18947 0018 002B     		cmp	r3, #0
 18948 001a 03D0     		beq	.L49
 526:../StdPeripheralDriver/src/stm32f10x_can.c ****   {
 527:../StdPeripheralDriver/src/stm32f10x_can.c ****     transmit_mailbox = 0;
 18949              		.loc 1 527 0
 18950 001c 4FF00003 		mov	r3, #0
 18951 0020 FB73     		strb	r3, [r7, #15]
 18952 0022 16E0     		b	.L50
 18953              	.L49:
 528:../StdPeripheralDriver/src/stm32f10x_can.c ****   }
 529:../StdPeripheralDriver/src/stm32f10x_can.c ****   else if ((CANx->TSR&CAN_TSR_TME1) == CAN_TSR_TME1)
 18954              		.loc 1 529 0
 18955 0024 7B68     		ldr	r3, [r7, #4]
 18956 0026 9B68     		ldr	r3, [r3, #8]
 18957 0028 03F00063 		and	r3, r3, #134217728
 18958 002c 002B     		cmp	r3, #0
 18959 002e 03D0     		beq	.L51
 530:../StdPeripheralDriver/src/stm32f10x_can.c ****   {
 531:../StdPeripheralDriver/src/stm32f10x_can.c ****     transmit_mailbox = 1;
 18960              		.loc 1 531 0
 18961 0030 4FF00103 		mov	r3, #1
 18962 0034 FB73     		strb	r3, [r7, #15]
 18963 0036 0CE0     		b	.L50
 18964              	.L51:
 532:../StdPeripheralDriver/src/stm32f10x_can.c ****   }
 533:../StdPeripheralDriver/src/stm32f10x_can.c ****   else if ((CANx->TSR&CAN_TSR_TME2) == CAN_TSR_TME2)
 18965              		.loc 1 533 0
 18966 0038 7B68     		ldr	r3, [r7, #4]
 18967 003a 9B68     		ldr	r3, [r3, #8]
 18968 003c 03F08053 		and	r3, r3, #268435456
 18969 0040 002B     		cmp	r3, #0
 18970 0042 03D0     		beq	.L52
 534:../StdPeripheralDriver/src/stm32f10x_can.c ****   {
 535:../StdPeripheralDriver/src/stm32f10x_can.c ****     transmit_mailbox = 2;
 18971              		.loc 1 535 0
 18972 0044 4FF00203 		mov	r3, #2
 18973 0048 FB73     		strb	r3, [r7, #15]
 18974 004a 02E0     		b	.L50
 18975              	.L52:
 536:../StdPeripheralDriver/src/stm32f10x_can.c ****   }
 537:../StdPeripheralDriver/src/stm32f10x_can.c ****   else
 538:../StdPeripheralDriver/src/stm32f10x_can.c ****   {
 539:../StdPeripheralDriver/src/stm32f10x_can.c ****     transmit_mailbox = CAN_TxStatus_NoMailBox;
 18976              		.loc 1 539 0
 18977 004c 4FF00403 		mov	r3, #4
 18978 0050 FB73     		strb	r3, [r7, #15]
 18979              	.L50:
 540:../StdPeripheralDriver/src/stm32f10x_can.c ****   }
 541:../StdPeripheralDriver/src/stm32f10x_can.c **** 
 542:../StdPeripheralDriver/src/stm32f10x_can.c ****   if (transmit_mailbox != CAN_TxStatus_NoMailBox)
 18980              		.loc 1 542 0
 18981 0052 FB7B     		ldrb	r3, [r7, #15]	@ zero_extendqisi2
 18982 0054 042B     		cmp	r3, #4
 18983 0056 00F0C180 		beq	.L53
 543:../StdPeripheralDriver/src/stm32f10x_can.c ****   {
 544:../StdPeripheralDriver/src/stm32f10x_can.c ****     /* Set up the Id */
 545:../StdPeripheralDriver/src/stm32f10x_can.c ****     CANx->sTxMailBox[transmit_mailbox].TIR &= TMIDxR_TXRQ;
 18984              		.loc 1 545 0
 18985 005a FB7B     		ldrb	r3, [r7, #15]	@ zero_extendqisi2
 18986 005c FA7B     		ldrb	r2, [r7, #15]	@ zero_extendqisi2
 18987 005e 7968     		ldr	r1, [r7, #4]
 18988 0060 02F11802 		add	r2, r2, #24
 18989 0064 4FEA0212 		lsl	r2, r2, #4
 18990 0068 8A18     		adds	r2, r1, r2
 18991 006a 1268     		ldr	r2, [r2, #0]
 18992 006c 02F00102 		and	r2, r2, #1
 18993 0070 7968     		ldr	r1, [r7, #4]
 18994 0072 03F11803 		add	r3, r3, #24
 18995 0076 4FEA0313 		lsl	r3, r3, #4
 18996 007a CB18     		adds	r3, r1, r3
 18997 007c 1A60     		str	r2, [r3, #0]
 546:../StdPeripheralDriver/src/stm32f10x_can.c ****     if (TxMessage->IDE == CAN_Id_Standard)
 18998              		.loc 1 546 0
 18999 007e 3B68     		ldr	r3, [r7, #0]
 19000 0080 1B7A     		ldrb	r3, [r3, #8]	@ zero_extendqisi2
 19001 0082 002B     		cmp	r3, #0
 19002 0084 1AD1     		bne	.L54
 547:../StdPeripheralDriver/src/stm32f10x_can.c ****     {
 548:../StdPeripheralDriver/src/stm32f10x_can.c ****       assert_param(IS_CAN_STDID(TxMessage->StdId));  
 549:../StdPeripheralDriver/src/stm32f10x_can.c ****       CANx->sTxMailBox[transmit_mailbox].TIR |= ((TxMessage->StdId << 21) | \
 19003              		.loc 1 549 0
 19004 0086 FB7B     		ldrb	r3, [r7, #15]	@ zero_extendqisi2
 19005 0088 FA7B     		ldrb	r2, [r7, #15]	@ zero_extendqisi2
 19006 008a 7968     		ldr	r1, [r7, #4]
 19007 008c 02F11802 		add	r2, r2, #24
 19008 0090 4FEA0212 		lsl	r2, r2, #4
 19009 0094 8A18     		adds	r2, r1, r2
 19010 0096 1168     		ldr	r1, [r2, #0]
 19011 0098 3A68     		ldr	r2, [r7, #0]
 19012 009a 1268     		ldr	r2, [r2, #0]
 19013 009c 4FEA4250 		lsl	r0, r2, #21
 550:../StdPeripheralDriver/src/stm32f10x_can.c ****                                                   TxMessage->RTR);
 19014              		.loc 1 550 0
 19015 00a0 3A68     		ldr	r2, [r7, #0]
 19016 00a2 527A     		ldrb	r2, [r2, #9]	@ zero_extendqisi2
 549:../StdPeripheralDriver/src/stm32f10x_can.c ****       CANx->sTxMailBox[transmit_mailbox].TIR |= ((TxMessage->StdId << 21) | \
 19017              		.loc 1 549 0
 19018 00a4 40EA0202 		orr	r2, r0, r2
 19019 00a8 41EA0202 		orr	r2, r1, r2
 19020 00ac 7968     		ldr	r1, [r7, #4]
 19021 00ae 03F11803 		add	r3, r3, #24
 19022 00b2 4FEA0313 		lsl	r3, r3, #4
 19023 00b6 CB18     		adds	r3, r1, r3
 19024 00b8 1A60     		str	r2, [r3, #0]
 19025 00ba 1CE0     		b	.L55
 19026              	.L54:
 551:../StdPeripheralDriver/src/stm32f10x_can.c ****     }
 552:../StdPeripheralDriver/src/stm32f10x_can.c ****     else
 553:../StdPeripheralDriver/src/stm32f10x_can.c ****     {
 554:../StdPeripheralDriver/src/stm32f10x_can.c ****       assert_param(IS_CAN_EXTID(TxMessage->ExtId));
 555:../StdPeripheralDriver/src/stm32f10x_can.c ****       CANx->sTxMailBox[transmit_mailbox].TIR |= ((TxMessage->ExtId << 3) | \
 19027              		.loc 1 555 0
 19028 00bc FB7B     		ldrb	r3, [r7, #15]	@ zero_extendqisi2
 19029 00be FA7B     		ldrb	r2, [r7, #15]	@ zero_extendqisi2
 19030 00c0 7968     		ldr	r1, [r7, #4]
 19031 00c2 02F11802 		add	r2, r2, #24
 19032 00c6 4FEA0212 		lsl	r2, r2, #4
 19033 00ca 8A18     		adds	r2, r1, r2
 19034 00cc 1168     		ldr	r1, [r2, #0]
 19035 00ce 3A68     		ldr	r2, [r7, #0]
 19036 00d0 5268     		ldr	r2, [r2, #4]
 19037 00d2 4FEAC200 		lsl	r0, r2, #3
 556:../StdPeripheralDriver/src/stm32f10x_can.c ****                                                   TxMessage->IDE | \
 19038              		.loc 1 556 0
 19039 00d6 3A68     		ldr	r2, [r7, #0]
 19040 00d8 127A     		ldrb	r2, [r2, #8]	@ zero_extendqisi2
 555:../StdPeripheralDriver/src/stm32f10x_can.c ****       CANx->sTxMailBox[transmit_mailbox].TIR |= ((TxMessage->ExtId << 3) | \
 19041              		.loc 1 555 0
 19042 00da 1043     		orrs	r0, r0, r2
 557:../StdPeripheralDriver/src/stm32f10x_can.c ****                                                   TxMessage->RTR);
 19043              		.loc 1 557 0
 19044 00dc 3A68     		ldr	r2, [r7, #0]
 19045 00de 527A     		ldrb	r2, [r2, #9]	@ zero_extendqisi2
 556:../StdPeripheralDriver/src/stm32f10x_can.c ****                                                   TxMessage->IDE | \
 19046              		.loc 1 556 0
 19047 00e0 40EA0202 		orr	r2, r0, r2
 555:../StdPeripheralDriver/src/stm32f10x_can.c ****       CANx->sTxMailBox[transmit_mailbox].TIR |= ((TxMessage->ExtId << 3) | \
 19048              		.loc 1 555 0
 19049 00e4 41EA0202 		orr	r2, r1, r2
 19050 00e8 7968     		ldr	r1, [r7, #4]
 19051 00ea 03F11803 		add	r3, r3, #24
 19052 00ee 4FEA0313 		lsl	r3, r3, #4
 19053 00f2 CB18     		adds	r3, r1, r3
 19054 00f4 1A60     		str	r2, [r3, #0]
 19055              	.L55:
 558:../StdPeripheralDriver/src/stm32f10x_can.c ****     }
 559:../StdPeripheralDriver/src/stm32f10x_can.c ****     
 560:../StdPeripheralDriver/src/stm32f10x_can.c ****     /* Set up the DLC */
 561:../StdPeripheralDriver/src/stm32f10x_can.c ****     TxMessage->DLC &= (uint8_t)0x0000000F;
 19056              		.loc 1 561 0
 19057 00f6 3B68     		ldr	r3, [r7, #0]
 19058 00f8 9B7A     		ldrb	r3, [r3, #10]	@ zero_extendqisi2
 19059 00fa 03F00F03 		and	r3, r3, #15
 19060 00fe DAB2     		uxtb	r2, r3
 19061 0100 3B68     		ldr	r3, [r7, #0]
 19062 0102 9A72     		strb	r2, [r3, #10]
 562:../StdPeripheralDriver/src/stm32f10x_can.c ****     CANx->sTxMailBox[transmit_mailbox].TDTR &= (uint32_t)0xFFFFFFF0;
 19063              		.loc 1 562 0
 19064 0104 FB7B     		ldrb	r3, [r7, #15]	@ zero_extendqisi2
 19065 0106 FA7B     		ldrb	r2, [r7, #15]	@ zero_extendqisi2
 19066 0108 7968     		ldr	r1, [r7, #4]
 19067 010a 02F11802 		add	r2, r2, #24
 19068 010e 4FEA0212 		lsl	r2, r2, #4
 19069 0112 8A18     		adds	r2, r1, r2
 19070 0114 5268     		ldr	r2, [r2, #4]
 19071 0116 22F00F02 		bic	r2, r2, #15
 19072 011a 7968     		ldr	r1, [r7, #4]
 19073 011c 03F11803 		add	r3, r3, #24
 19074 0120 4FEA0313 		lsl	r3, r3, #4
 19075 0124 CB18     		adds	r3, r1, r3
 19076 0126 5A60     		str	r2, [r3, #4]
 563:../StdPeripheralDriver/src/stm32f10x_can.c ****     CANx->sTxMailBox[transmit_mailbox].TDTR |= TxMessage->DLC;
 19077              		.loc 1 563 0
 19078 0128 FB7B     		ldrb	r3, [r7, #15]	@ zero_extendqisi2
 19079 012a FA7B     		ldrb	r2, [r7, #15]	@ zero_extendqisi2
 19080 012c 7968     		ldr	r1, [r7, #4]
 19081 012e 02F11802 		add	r2, r2, #24
 19082 0132 4FEA0212 		lsl	r2, r2, #4
 19083 0136 8A18     		adds	r2, r1, r2
 19084 0138 5168     		ldr	r1, [r2, #4]
 19085 013a 3A68     		ldr	r2, [r7, #0]
 19086 013c 927A     		ldrb	r2, [r2, #10]	@ zero_extendqisi2
 19087 013e 41EA0202 		orr	r2, r1, r2
 19088 0142 7968     		ldr	r1, [r7, #4]
 19089 0144 03F11803 		add	r3, r3, #24
 19090 0148 4FEA0313 		lsl	r3, r3, #4
 19091 014c CB18     		adds	r3, r1, r3
 19092 014e 5A60     		str	r2, [r3, #4]
 564:../StdPeripheralDriver/src/stm32f10x_can.c **** 
 565:../StdPeripheralDriver/src/stm32f10x_can.c ****     /* Set up the data field */
 566:../StdPeripheralDriver/src/stm32f10x_can.c ****     CANx->sTxMailBox[transmit_mailbox].TDLR = (((uint32_t)TxMessage->Data[3] << 24) | 
 19093              		.loc 1 566 0
 19094 0150 FB7B     		ldrb	r3, [r7, #15]	@ zero_extendqisi2
 19095 0152 3A68     		ldr	r2, [r7, #0]
 19096 0154 927B     		ldrb	r2, [r2, #14]	@ zero_extendqisi2
 19097 0156 4FEA0261 		lsl	r1, r2, #24
 567:../StdPeripheralDriver/src/stm32f10x_can.c ****                                              ((uint32_t)TxMessage->Data[2] << 16) |
 19098              		.loc 1 567 0
 19099 015a 3A68     		ldr	r2, [r7, #0]
 19100 015c 527B     		ldrb	r2, [r2, #13]	@ zero_extendqisi2
 19101 015e 4FEA0242 		lsl	r2, r2, #16
 566:../StdPeripheralDriver/src/stm32f10x_can.c ****     CANx->sTxMailBox[transmit_mailbox].TDLR = (((uint32_t)TxMessage->Data[3] << 24) | 
 19102              		.loc 1 566 0
 19103 0162 1143     		orrs	r1, r1, r2
 568:../StdPeripheralDriver/src/stm32f10x_can.c ****                                              ((uint32_t)TxMessage->Data[1] << 8) | 
 19104              		.loc 1 568 0
 19105 0164 3A68     		ldr	r2, [r7, #0]
 19106 0166 127B     		ldrb	r2, [r2, #12]	@ zero_extendqisi2
 19107 0168 4FEA0222 		lsl	r2, r2, #8
 567:../StdPeripheralDriver/src/stm32f10x_can.c ****                                              ((uint32_t)TxMessage->Data[2] << 16) |
 19108              		.loc 1 567 0
 19109 016c 1143     		orrs	r1, r1, r2
 569:../StdPeripheralDriver/src/stm32f10x_can.c ****                                              ((uint32_t)TxMessage->Data[0]));
 19110              		.loc 1 569 0
 19111 016e 3A68     		ldr	r2, [r7, #0]
 19112 0170 D27A     		ldrb	r2, [r2, #11]	@ zero_extendqisi2
 568:../StdPeripheralDriver/src/stm32f10x_can.c ****                                              ((uint32_t)TxMessage->Data[1] << 8) | 
 19113              		.loc 1 568 0
 19114 0172 41EA0202 		orr	r2, r1, r2
 566:../StdPeripheralDriver/src/stm32f10x_can.c ****     CANx->sTxMailBox[transmit_mailbox].TDLR = (((uint32_t)TxMessage->Data[3] << 24) | 
 19115              		.loc 1 566 0
 19116 0176 7968     		ldr	r1, [r7, #4]
 19117 0178 4FEA0313 		lsl	r3, r3, #4
 19118 017c CB18     		adds	r3, r1, r3
 19119 017e 03F5C473 		add	r3, r3, #392
 19120 0182 1A60     		str	r2, [r3, #0]
 570:../StdPeripheralDriver/src/stm32f10x_can.c ****     CANx->sTxMailBox[transmit_mailbox].TDHR = (((uint32_t)TxMessage->Data[7] << 24) | 
 19121              		.loc 1 570 0
 19122 0184 FB7B     		ldrb	r3, [r7, #15]	@ zero_extendqisi2
 19123 0186 3A68     		ldr	r2, [r7, #0]
 19124 0188 927C     		ldrb	r2, [r2, #18]	@ zero_extendqisi2
 19125 018a 4FEA0261 		lsl	r1, r2, #24
 571:../StdPeripheralDriver/src/stm32f10x_can.c ****                                              ((uint32_t)TxMessage->Data[6] << 16) |
 19126              		.loc 1 571 0
 19127 018e 3A68     		ldr	r2, [r7, #0]
 19128 0190 527C     		ldrb	r2, [r2, #17]	@ zero_extendqisi2
 19129 0192 4FEA0242 		lsl	r2, r2, #16
 570:../StdPeripheralDriver/src/stm32f10x_can.c ****     CANx->sTxMailBox[transmit_mailbox].TDHR = (((uint32_t)TxMessage->Data[7] << 24) | 
 19130              		.loc 1 570 0
 19131 0196 1143     		orrs	r1, r1, r2
 572:../StdPeripheralDriver/src/stm32f10x_can.c ****                                              ((uint32_t)TxMessage->Data[5] << 8) |
 19132              		.loc 1 572 0
 19133 0198 3A68     		ldr	r2, [r7, #0]
 19134 019a 127C     		ldrb	r2, [r2, #16]	@ zero_extendqisi2
 19135 019c 4FEA0222 		lsl	r2, r2, #8
 571:../StdPeripheralDriver/src/stm32f10x_can.c ****                                              ((uint32_t)TxMessage->Data[6] << 16) |
 19136              		.loc 1 571 0
 19137 01a0 1143     		orrs	r1, r1, r2
 573:../StdPeripheralDriver/src/stm32f10x_can.c ****                                              ((uint32_t)TxMessage->Data[4]));
 19138              		.loc 1 573 0
 19139 01a2 3A68     		ldr	r2, [r7, #0]
 19140 01a4 D27B     		ldrb	r2, [r2, #15]	@ zero_extendqisi2
 572:../StdPeripheralDriver/src/stm32f10x_can.c ****                                              ((uint32_t)TxMessage->Data[5] << 8) |
 19141              		.loc 1 572 0
 19142 01a6 41EA0202 		orr	r2, r1, r2
 570:../StdPeripheralDriver/src/stm32f10x_can.c ****     CANx->sTxMailBox[transmit_mailbox].TDHR = (((uint32_t)TxMessage->Data[7] << 24) | 
 19143              		.loc 1 570 0
 19144 01aa 7968     		ldr	r1, [r7, #4]
 19145 01ac 4FEA0313 		lsl	r3, r3, #4
 19146 01b0 CB18     		adds	r3, r1, r3
 19147 01b2 03F5C473 		add	r3, r3, #392
 19148 01b6 5A60     		str	r2, [r3, #4]
 574:../StdPeripheralDriver/src/stm32f10x_can.c ****     /* Request transmission */
 575:../StdPeripheralDriver/src/stm32f10x_can.c ****     CANx->sTxMailBox[transmit_mailbox].TIR |= TMIDxR_TXRQ;
 19149              		.loc 1 575 0
 19150 01b8 FB7B     		ldrb	r3, [r7, #15]	@ zero_extendqisi2
 19151 01ba FA7B     		ldrb	r2, [r7, #15]	@ zero_extendqisi2
 19152 01bc 7968     		ldr	r1, [r7, #4]
 19153 01be 02F11802 		add	r2, r2, #24
 19154 01c2 4FEA0212 		lsl	r2, r2, #4
 19155 01c6 8A18     		adds	r2, r1, r2
 19156 01c8 1268     		ldr	r2, [r2, #0]
 19157 01ca 42F00102 		orr	r2, r2, #1
 19158 01ce 7968     		ldr	r1, [r7, #4]
 19159 01d0 03F11803 		add	r3, r3, #24
 19160 01d4 4FEA0313 		lsl	r3, r3, #4
 19161 01d8 CB18     		adds	r3, r1, r3
 19162 01da 1A60     		str	r2, [r3, #0]
 19163              	.L53:
 576:../StdPeripheralDriver/src/stm32f10x_can.c ****   }
 577:../StdPeripheralDriver/src/stm32f10x_can.c ****   return transmit_mailbox;
 19164              		.loc 1 577 0
 19165 01dc FB7B     		ldrb	r3, [r7, #15]	@ zero_extendqisi2
 578:../StdPeripheralDriver/src/stm32f10x_can.c **** }
 19166              		.loc 1 578 0
 19167 01de 1846     		mov	r0, r3
 19168 01e0 07F11407 		add	r7, r7, #20
 19169 01e4 BD46     		mov	sp, r7
 19170 01e6 80BC     		pop	{r7}
 19171 01e8 7047     		bx	lr
 19172              		.cfi_endproc
 19173              	.LFE36:
 19175 01ea 00BF     		.section	.text.CAN_TransmitStatus,"ax",%progbits
 19176              		.align	2
 19177              		.global	CAN_TransmitStatus
 19178              		.thumb
 19179              		.thumb_func
 19181              	CAN_TransmitStatus:
 19182              	.LFB37:
 579:../StdPeripheralDriver/src/stm32f10x_can.c **** 
 580:../StdPeripheralDriver/src/stm32f10x_can.c **** /**
 581:../StdPeripheralDriver/src/stm32f10x_can.c ****   * @brief  Checks the transmission of a message.
 582:../StdPeripheralDriver/src/stm32f10x_can.c ****   * @param  CANx:            where x can be 1 or 2 to to select the 
 583:../StdPeripheralDriver/src/stm32f10x_can.c ****   *                          CAN peripheral.
 584:../StdPeripheralDriver/src/stm32f10x_can.c ****   * @param  TransmitMailbox: the number of the mailbox that is used for 
 585:../StdPeripheralDriver/src/stm32f10x_can.c ****   *                          transmission.
 586:../StdPeripheralDriver/src/stm32f10x_can.c ****   * @retval CAN_TxStatus_Ok if the CAN driver transmits the message, CAN_TxStatus_Failed 
 587:../StdPeripheralDriver/src/stm32f10x_can.c ****   *         in an other case.
 588:../StdPeripheralDriver/src/stm32f10x_can.c ****   */
 589:../StdPeripheralDriver/src/stm32f10x_can.c **** uint8_t CAN_TransmitStatus(CAN_TypeDef* CANx, uint8_t TransmitMailbox)
 590:../StdPeripheralDriver/src/stm32f10x_can.c **** {
 19183              		.loc 1 590 0
 19184              		.cfi_startproc
 19185              		@ args = 0, pretend = 0, frame = 16
 19186              		@ frame_needed = 1, uses_anonymous_args = 0
 19187              		@ link register save eliminated.
 19188 0000 80B4     		push	{r7}
 19189              	.LCFI24:
 19190              		.cfi_def_cfa_offset 4
 19191 0002 85B0     		sub	sp, sp, #20
 19192              	.LCFI25:
 19193              		.cfi_def_cfa_offset 24
 19194 0004 00AF     		add	r7, sp, #0
 19195              		.cfi_offset 7, -4
 19196              	.LCFI26:
 19197              		.cfi_def_cfa_register 7
 19198 0006 7860     		str	r0, [r7, #4]
 19199 0008 0B46     		mov	r3, r1
 19200 000a FB70     		strb	r3, [r7, #3]
 591:../StdPeripheralDriver/src/stm32f10x_can.c ****   uint32_t state = 0;
 19201              		.loc 1 591 0
 19202 000c 4FF00003 		mov	r3, #0
 19203 0010 FB60     		str	r3, [r7, #12]
 592:../StdPeripheralDriver/src/stm32f10x_can.c **** 
 593:../StdPeripheralDriver/src/stm32f10x_can.c ****   /* Check the parameters */
 594:../StdPeripheralDriver/src/stm32f10x_can.c ****   assert_param(IS_CAN_ALL_PERIPH(CANx));
 595:../StdPeripheralDriver/src/stm32f10x_can.c ****   assert_param(IS_CAN_TRANSMITMAILBOX(TransmitMailbox));
 596:../StdPeripheralDriver/src/stm32f10x_can.c ****  
 597:../StdPeripheralDriver/src/stm32f10x_can.c ****   switch (TransmitMailbox)
 19204              		.loc 1 597 0
 19205 0012 FB78     		ldrb	r3, [r7, #3]	@ zero_extendqisi2
 19206 0014 012B     		cmp	r3, #1
 19207 0016 0AD0     		beq	.L59
 19208 0018 022B     		cmp	r3, #2
 19209 001a 0FD0     		beq	.L60
 19210 001c 002B     		cmp	r3, #0
 19211 001e 14D1     		bne	.L72
 19212              	.L58:
 598:../StdPeripheralDriver/src/stm32f10x_can.c ****   {
 599:../StdPeripheralDriver/src/stm32f10x_can.c ****     case (CAN_TXMAILBOX_0): 
 600:../StdPeripheralDriver/src/stm32f10x_can.c ****       state =   CANx->TSR &  (CAN_TSR_RQCP0 | CAN_TSR_TXOK0 | CAN_TSR_TME0);
 19213              		.loc 1 600 0
 19214 0020 7B68     		ldr	r3, [r7, #4]
 19215 0022 9A68     		ldr	r2, [r3, #8]
 19216 0024 2C4B     		ldr	r3, .L73
 19217 0026 02EA0303 		and	r3, r2, r3
 19218 002a FB60     		str	r3, [r7, #12]
 601:../StdPeripheralDriver/src/stm32f10x_can.c ****       break;
 19219              		.loc 1 601 0
 19220 002c 11E0     		b	.L61
 19221              	.L59:
 602:../StdPeripheralDriver/src/stm32f10x_can.c ****     case (CAN_TXMAILBOX_1): 
 603:../StdPeripheralDriver/src/stm32f10x_can.c ****       state =   CANx->TSR &  (CAN_TSR_RQCP1 | CAN_TSR_TXOK1 | CAN_TSR_TME1);
 19222              		.loc 1 603 0
 19223 002e 7B68     		ldr	r3, [r7, #4]
 19224 0030 9A68     		ldr	r2, [r3, #8]
 19225 0032 2A4B     		ldr	r3, .L73+4
 19226 0034 02EA0303 		and	r3, r2, r3
 19227 0038 FB60     		str	r3, [r7, #12]
 604:../StdPeripheralDriver/src/stm32f10x_can.c ****       break;
 19228              		.loc 1 604 0
 19229 003a 0AE0     		b	.L61
 19230              	.L60:
 605:../StdPeripheralDriver/src/stm32f10x_can.c ****     case (CAN_TXMAILBOX_2): 
 606:../StdPeripheralDriver/src/stm32f10x_can.c ****       state =   CANx->TSR &  (CAN_TSR_RQCP2 | CAN_TSR_TXOK2 | CAN_TSR_TME2);
 19231              		.loc 1 606 0
 19232 003c 7B68     		ldr	r3, [r7, #4]
 19233 003e 9A68     		ldr	r2, [r3, #8]
 19234 0040 274B     		ldr	r3, .L73+8
 19235 0042 02EA0303 		and	r3, r2, r3
 19236 0046 FB60     		str	r3, [r7, #12]
 607:../StdPeripheralDriver/src/stm32f10x_can.c ****       break;
 19237              		.loc 1 607 0
 19238 0048 03E0     		b	.L61
 19239              	.L72:
 608:../StdPeripheralDriver/src/stm32f10x_can.c ****     default:
 609:../StdPeripheralDriver/src/stm32f10x_can.c ****       state = CAN_TxStatus_Failed;
 19240              		.loc 1 609 0
 19241 004a 4FF00003 		mov	r3, #0
 19242 004e FB60     		str	r3, [r7, #12]
 610:../StdPeripheralDriver/src/stm32f10x_can.c ****       break;
 19243              		.loc 1 610 0
 19244 0050 00BF     		nop
 19245              	.L61:
 611:../StdPeripheralDriver/src/stm32f10x_can.c ****   }
 612:../StdPeripheralDriver/src/stm32f10x_can.c ****   switch (state)
 19246              		.loc 1 612 0
 19247 0052 FB68     		ldr	r3, [r7, #12]
 19248 0054 234A     		ldr	r2, .L73+12
 19249 0056 9342     		cmp	r3, r2
 19250 0058 1DD0     		beq	.L66
 19251 005a 224A     		ldr	r2, .L73+12
 19252 005c 9342     		cmp	r3, r2
 19253 005e 08D8     		bhi	.L70
 19254 0060 214A     		ldr	r2, .L73+16
 19255 0062 9342     		cmp	r3, r2
 19256 0064 13D0     		beq	.L64
 19257 0066 1C4A     		ldr	r2, .L73
 19258 0068 9342     		cmp	r3, r2
 19259 006a 1CD0     		beq	.L65
 19260 006c 002B     		cmp	r3, #0
 19261 006e 0AD0     		beq	.L63
 19262 0070 25E0     		b	.L62
 19263              	.L70:
 19264 0072 1E4A     		ldr	r2, .L73+20
 19265 0074 9342     		cmp	r3, r2
 19266 0076 12D0     		beq	.L68
 19267 0078 194A     		ldr	r2, .L73+8
 19268 007a 9342     		cmp	r3, r2
 19269 007c 1BD0     		beq	.L69
 19270 007e 174A     		ldr	r2, .L73+4
 19271 0080 9342     		cmp	r3, r2
 19272 0082 14D0     		beq	.L67
 19273 0084 1BE0     		b	.L62
 19274              	.L63:
 613:../StdPeripheralDriver/src/stm32f10x_can.c ****   {
 614:../StdPeripheralDriver/src/stm32f10x_can.c ****       /* transmit pending  */
 615:../StdPeripheralDriver/src/stm32f10x_can.c ****     case (0x0): state = CAN_TxStatus_Pending;
 19275              		.loc 1 615 0
 19276 0086 4FF00203 		mov	r3, #2
 19277 008a FB60     		str	r3, [r7, #12]
 616:../StdPeripheralDriver/src/stm32f10x_can.c ****       break;
 19278              		.loc 1 616 0
 19279 008c 1BE0     		b	.L71
 19280              	.L64:
 617:../StdPeripheralDriver/src/stm32f10x_can.c ****       /* transmit failed  */
 618:../StdPeripheralDriver/src/stm32f10x_can.c ****      case (CAN_TSR_RQCP0 | CAN_TSR_TME0): state = CAN_TxStatus_Failed;
 19281              		.loc 1 618 0
 19282 008e 4FF00003 		mov	r3, #0
 19283 0092 FB60     		str	r3, [r7, #12]
 619:../StdPeripheralDriver/src/stm32f10x_can.c ****       break;
 19284              		.loc 1 619 0
 19285 0094 17E0     		b	.L71
 19286              	.L66:
 620:../StdPeripheralDriver/src/stm32f10x_can.c ****      case (CAN_TSR_RQCP1 | CAN_TSR_TME1): state = CAN_TxStatus_Failed;
 19287              		.loc 1 620 0
 19288 0096 4FF00003 		mov	r3, #0
 19289 009a FB60     		str	r3, [r7, #12]
 621:../StdPeripheralDriver/src/stm32f10x_can.c ****       break;
 19290              		.loc 1 621 0
 19291 009c 13E0     		b	.L71
 19292              	.L68:
 622:../StdPeripheralDriver/src/stm32f10x_can.c ****      case (CAN_TSR_RQCP2 | CAN_TSR_TME2): state = CAN_TxStatus_Failed;
 19293              		.loc 1 622 0
 19294 009e 4FF00003 		mov	r3, #0
 19295 00a2 FB60     		str	r3, [r7, #12]
 623:../StdPeripheralDriver/src/stm32f10x_can.c ****       break;
 19296              		.loc 1 623 0
 19297 00a4 0FE0     		b	.L71
 19298              	.L65:
 624:../StdPeripheralDriver/src/stm32f10x_can.c ****       /* transmit succeeded  */
 625:../StdPeripheralDriver/src/stm32f10x_can.c ****     case (CAN_TSR_RQCP0 | CAN_TSR_TXOK0 | CAN_TSR_TME0):state = CAN_TxStatus_Ok;
 19299              		.loc 1 625 0
 19300 00a6 4FF00103 		mov	r3, #1
 19301 00aa FB60     		str	r3, [r7, #12]
 626:../StdPeripheralDriver/src/stm32f10x_can.c ****       break;
 19302              		.loc 1 626 0
 19303 00ac 0BE0     		b	.L71
 19304              	.L67:
 627:../StdPeripheralDriver/src/stm32f10x_can.c ****     case (CAN_TSR_RQCP1 | CAN_TSR_TXOK1 | CAN_TSR_TME1):state = CAN_TxStatus_Ok;
 19305              		.loc 1 627 0
 19306 00ae 4FF00103 		mov	r3, #1
 19307 00b2 FB60     		str	r3, [r7, #12]
 628:../StdPeripheralDriver/src/stm32f10x_can.c ****       break;
 19308              		.loc 1 628 0
 19309 00b4 07E0     		b	.L71
 19310              	.L69:
 629:../StdPeripheralDriver/src/stm32f10x_can.c ****     case (CAN_TSR_RQCP2 | CAN_TSR_TXOK2 | CAN_TSR_TME2):state = CAN_TxStatus_Ok;
 19311              		.loc 1 629 0
 19312 00b6 4FF00103 		mov	r3, #1
 19313 00ba FB60     		str	r3, [r7, #12]
 630:../StdPeripheralDriver/src/stm32f10x_can.c ****       break;
 19314              		.loc 1 630 0
 19315 00bc 03E0     		b	.L71
 19316              	.L62:
 631:../StdPeripheralDriver/src/stm32f10x_can.c ****     default: state = CAN_TxStatus_Failed;
 19317              		.loc 1 631 0
 19318 00be 4FF00003 		mov	r3, #0
 19319 00c2 FB60     		str	r3, [r7, #12]
 632:../StdPeripheralDriver/src/stm32f10x_can.c ****       break;
 19320              		.loc 1 632 0
 19321 00c4 00BF     		nop
 19322              	.L71:
 633:../StdPeripheralDriver/src/stm32f10x_can.c ****   }
 634:../StdPeripheralDriver/src/stm32f10x_can.c ****   return (uint8_t) state;
 19323              		.loc 1 634 0
 19324 00c6 FB68     		ldr	r3, [r7, #12]
 19325 00c8 DBB2     		uxtb	r3, r3
 635:../StdPeripheralDriver/src/stm32f10x_can.c **** }
 19326              		.loc 1 635 0
 19327 00ca 1846     		mov	r0, r3
 19328 00cc 07F11407 		add	r7, r7, #20
 19329 00d0 BD46     		mov	sp, r7
 19330 00d2 80BC     		pop	{r7}
 19331 00d4 7047     		bx	lr
 19332              	.L74:
 19333 00d6 00BF     		.align	2
 19334              	.L73:
 19335 00d8 03000004 		.word	67108867
 19336 00dc 00030008 		.word	134218496
 19337 00e0 00000310 		.word	268632064
 19338 00e4 00010008 		.word	134217984
 19339 00e8 01000004 		.word	67108865
 19340 00ec 00000110 		.word	268500992
 19341              		.cfi_endproc
 19342              	.LFE37:
 19344              		.section	.text.CAN_CancelTransmit,"ax",%progbits
 19345              		.align	2
 19346              		.global	CAN_CancelTransmit
 19347              		.thumb
 19348              		.thumb_func
 19350              	CAN_CancelTransmit:
 19351              	.LFB38:
 636:../StdPeripheralDriver/src/stm32f10x_can.c **** 
 637:../StdPeripheralDriver/src/stm32f10x_can.c **** /**
 638:../StdPeripheralDriver/src/stm32f10x_can.c ****   * @brief  Cancels a transmit request.
 639:../StdPeripheralDriver/src/stm32f10x_can.c ****   * @param  CANx:     where x can be 1 or 2 to to select the CAN peripheral. 
 640:../StdPeripheralDriver/src/stm32f10x_can.c ****   * @param  Mailbox:  Mailbox number.
 641:../StdPeripheralDriver/src/stm32f10x_can.c ****   * @retval None.
 642:../StdPeripheralDriver/src/stm32f10x_can.c ****   */
 643:../StdPeripheralDriver/src/stm32f10x_can.c **** void CAN_CancelTransmit(CAN_TypeDef* CANx, uint8_t Mailbox)
 644:../StdPeripheralDriver/src/stm32f10x_can.c **** {
 19352              		.loc 1 644 0
 19353              		.cfi_startproc
 19354              		@ args = 0, pretend = 0, frame = 8
 19355              		@ frame_needed = 1, uses_anonymous_args = 0
 19356              		@ link register save eliminated.
 19357 0000 80B4     		push	{r7}
 19358              	.LCFI27:
 19359              		.cfi_def_cfa_offset 4
 19360 0002 83B0     		sub	sp, sp, #12
 19361              	.LCFI28:
 19362              		.cfi_def_cfa_offset 16
 19363 0004 00AF     		add	r7, sp, #0
 19364              		.cfi_offset 7, -4
 19365              	.LCFI29:
 19366              		.cfi_def_cfa_register 7
 19367 0006 7860     		str	r0, [r7, #4]
 19368 0008 0B46     		mov	r3, r1
 19369 000a FB70     		strb	r3, [r7, #3]
 645:../StdPeripheralDriver/src/stm32f10x_can.c ****   /* Check the parameters */
 646:../StdPeripheralDriver/src/stm32f10x_can.c ****   assert_param(IS_CAN_ALL_PERIPH(CANx));
 647:../StdPeripheralDriver/src/stm32f10x_can.c ****   assert_param(IS_CAN_TRANSMITMAILBOX(Mailbox));
 648:../StdPeripheralDriver/src/stm32f10x_can.c ****   /* abort transmission */
 649:../StdPeripheralDriver/src/stm32f10x_can.c ****   switch (Mailbox)
 19370              		.loc 1 649 0
 19371 000c FB78     		ldrb	r3, [r7, #3]	@ zero_extendqisi2
 19372 000e 012B     		cmp	r3, #1
 19373 0010 0AD0     		beq	.L78
 19374 0012 022B     		cmp	r3, #2
 19375 0014 0FD0     		beq	.L79
 19376 0016 002B     		cmp	r3, #0
 19377 0018 15D1     		bne	.L81
 19378              	.L77:
 650:../StdPeripheralDriver/src/stm32f10x_can.c ****   {
 651:../StdPeripheralDriver/src/stm32f10x_can.c ****     case (CAN_TXMAILBOX_0): CANx->TSR |= CAN_TSR_ABRQ0;
 19379              		.loc 1 651 0
 19380 001a 7B68     		ldr	r3, [r7, #4]
 19381 001c 9B68     		ldr	r3, [r3, #8]
 19382 001e 43F08002 		orr	r2, r3, #128
 19383 0022 7B68     		ldr	r3, [r7, #4]
 19384 0024 9A60     		str	r2, [r3, #8]
 652:../StdPeripheralDriver/src/stm32f10x_can.c ****       break;
 19385              		.loc 1 652 0
 19386 0026 0FE0     		b	.L75
 19387              	.L78:
 653:../StdPeripheralDriver/src/stm32f10x_can.c ****     case (CAN_TXMAILBOX_1): CANx->TSR |= CAN_TSR_ABRQ1;
 19388              		.loc 1 653 0
 19389 0028 7B68     		ldr	r3, [r7, #4]
 19390 002a 9B68     		ldr	r3, [r3, #8]
 19391 002c 43F40042 		orr	r2, r3, #32768
 19392 0030 7B68     		ldr	r3, [r7, #4]
 19393 0032 9A60     		str	r2, [r3, #8]
 654:../StdPeripheralDriver/src/stm32f10x_can.c ****       break;
 19394              		.loc 1 654 0
 19395 0034 08E0     		b	.L75
 19396              	.L79:
 655:../StdPeripheralDriver/src/stm32f10x_can.c ****     case (CAN_TXMAILBOX_2): CANx->TSR |= CAN_TSR_ABRQ2;
 19397              		.loc 1 655 0
 19398 0036 7B68     		ldr	r3, [r7, #4]
 19399 0038 9B68     		ldr	r3, [r3, #8]
 19400 003a 43F40002 		orr	r2, r3, #8388608
 19401 003e 7B68     		ldr	r3, [r7, #4]
 19402 0040 9A60     		str	r2, [r3, #8]
 656:../StdPeripheralDriver/src/stm32f10x_can.c ****       break;
 19403              		.loc 1 656 0
 19404 0042 00BF     		nop
 19405 0044 00E0     		b	.L75
 19406              	.L81:
 657:../StdPeripheralDriver/src/stm32f10x_can.c ****     default:
 658:../StdPeripheralDriver/src/stm32f10x_can.c ****       break;
 19407              		.loc 1 658 0
 19408 0046 00BF     		nop
 19409              	.L75:
 659:../StdPeripheralDriver/src/stm32f10x_can.c ****   }
 660:../StdPeripheralDriver/src/stm32f10x_can.c **** }
 19410              		.loc 1 660 0
 19411 0048 07F10C07 		add	r7, r7, #12
 19412 004c BD46     		mov	sp, r7
 19413 004e 80BC     		pop	{r7}
 19414 0050 7047     		bx	lr
 19415              		.cfi_endproc
 19416              	.LFE38:
 19418 0052 00BF     		.section	.text.CAN_Receive,"ax",%progbits
 19419              		.align	2
 19420              		.global	CAN_Receive
 19421              		.thumb
 19422              		.thumb_func
 19424              	CAN_Receive:
 19425              	.LFB39:
 661:../StdPeripheralDriver/src/stm32f10x_can.c **** 
 662:../StdPeripheralDriver/src/stm32f10x_can.c **** 
 663:../StdPeripheralDriver/src/stm32f10x_can.c **** /**
 664:../StdPeripheralDriver/src/stm32f10x_can.c ****   * @brief  Receives a message.
 665:../StdPeripheralDriver/src/stm32f10x_can.c ****   * @param  CANx:       where x can be 1 or 2 to to select the CAN peripheral.
 666:../StdPeripheralDriver/src/stm32f10x_can.c ****   * @param  FIFONumber: Receive FIFO number, CAN_FIFO0 or CAN_FIFO1.
 667:../StdPeripheralDriver/src/stm32f10x_can.c ****   * @param  RxMessage:  pointer to a structure receive message which contains 
 668:../StdPeripheralDriver/src/stm32f10x_can.c ****   *                     CAN Id, CAN DLC, CAN datas and FMI number.
 669:../StdPeripheralDriver/src/stm32f10x_can.c ****   * @retval None.
 670:../StdPeripheralDriver/src/stm32f10x_can.c ****   */
 671:../StdPeripheralDriver/src/stm32f10x_can.c **** void CAN_Receive(CAN_TypeDef* CANx, uint8_t FIFONumber, CanRxMsg* RxMessage)
 672:../StdPeripheralDriver/src/stm32f10x_can.c **** {
 19426              		.loc 1 672 0
 19427              		.cfi_startproc
 19428              		@ args = 0, pretend = 0, frame = 16
 19429              		@ frame_needed = 1, uses_anonymous_args = 0
 19430              		@ link register save eliminated.
 19431 0000 80B4     		push	{r7}
 19432              	.LCFI30:
 19433              		.cfi_def_cfa_offset 4
 19434 0002 85B0     		sub	sp, sp, #20
 19435              	.LCFI31:
 19436              		.cfi_def_cfa_offset 24
 19437 0004 00AF     		add	r7, sp, #0
 19438              		.cfi_offset 7, -4
 19439              	.LCFI32:
 19440              		.cfi_def_cfa_register 7
 19441 0006 F860     		str	r0, [r7, #12]
 19442 0008 0B46     		mov	r3, r1
 19443 000a 7A60     		str	r2, [r7, #4]
 19444 000c FB72     		strb	r3, [r7, #11]
 673:../StdPeripheralDriver/src/stm32f10x_can.c ****   /* Check the parameters */
 674:../StdPeripheralDriver/src/stm32f10x_can.c ****   assert_param(IS_CAN_ALL_PERIPH(CANx));
 675:../StdPeripheralDriver/src/stm32f10x_can.c ****   assert_param(IS_CAN_FIFO(FIFONumber));
 676:../StdPeripheralDriver/src/stm32f10x_can.c ****   /* Get the Id */
 677:../StdPeripheralDriver/src/stm32f10x_can.c ****   RxMessage->IDE = (uint8_t)0x04 & CANx->sFIFOMailBox[FIFONumber].RIR;
 19445              		.loc 1 677 0
 19446 000e FB7A     		ldrb	r3, [r7, #11]	@ zero_extendqisi2
 19447 0010 FA68     		ldr	r2, [r7, #12]
 19448 0012 03F11B03 		add	r3, r3, #27
 19449 0016 4FEA0313 		lsl	r3, r3, #4
 19450 001a D318     		adds	r3, r2, r3
 19451 001c 1B68     		ldr	r3, [r3, #0]
 19452 001e DBB2     		uxtb	r3, r3
 19453 0020 03F00403 		and	r3, r3, #4
 19454 0024 DAB2     		uxtb	r2, r3
 19455 0026 7B68     		ldr	r3, [r7, #4]
 19456 0028 1A72     		strb	r2, [r3, #8]
 678:../StdPeripheralDriver/src/stm32f10x_can.c ****   if (RxMessage->IDE == CAN_Id_Standard)
 19457              		.loc 1 678 0
 19458 002a 7B68     		ldr	r3, [r7, #4]
 19459 002c 1B7A     		ldrb	r3, [r3, #8]	@ zero_extendqisi2
 19460 002e 002B     		cmp	r3, #0
 19461 0030 0CD1     		bne	.L83
 679:../StdPeripheralDriver/src/stm32f10x_can.c ****   {
 680:../StdPeripheralDriver/src/stm32f10x_can.c ****     RxMessage->StdId = (uint32_t)0x000007FF & (CANx->sFIFOMailBox[FIFONumber].RIR >> 21);
 19462              		.loc 1 680 0
 19463 0032 FB7A     		ldrb	r3, [r7, #11]	@ zero_extendqisi2
 19464 0034 FA68     		ldr	r2, [r7, #12]
 19465 0036 03F11B03 		add	r3, r3, #27
 19466 003a 4FEA0313 		lsl	r3, r3, #4
 19467 003e D318     		adds	r3, r2, r3
 19468 0040 1B68     		ldr	r3, [r3, #0]
 19469 0042 4FEA5352 		lsr	r2, r3, #21
 19470 0046 7B68     		ldr	r3, [r7, #4]
 19471 0048 1A60     		str	r2, [r3, #0]
 19472 004a 0BE0     		b	.L84
 19473              	.L83:
 681:../StdPeripheralDriver/src/stm32f10x_can.c ****   }
 682:../StdPeripheralDriver/src/stm32f10x_can.c ****   else
 683:../StdPeripheralDriver/src/stm32f10x_can.c ****   {
 684:../StdPeripheralDriver/src/stm32f10x_can.c ****     RxMessage->ExtId = (uint32_t)0x1FFFFFFF & (CANx->sFIFOMailBox[FIFONumber].RIR >> 3);
 19474              		.loc 1 684 0
 19475 004c FB7A     		ldrb	r3, [r7, #11]	@ zero_extendqisi2
 19476 004e FA68     		ldr	r2, [r7, #12]
 19477 0050 03F11B03 		add	r3, r3, #27
 19478 0054 4FEA0313 		lsl	r3, r3, #4
 19479 0058 D318     		adds	r3, r2, r3
 19480 005a 1B68     		ldr	r3, [r3, #0]
 19481 005c 4FEAD302 		lsr	r2, r3, #3
 19482 0060 7B68     		ldr	r3, [r7, #4]
 19483 0062 5A60     		str	r2, [r3, #4]
 19484              	.L84:
 685:../StdPeripheralDriver/src/stm32f10x_can.c ****   }
 686:../StdPeripheralDriver/src/stm32f10x_can.c ****   
 687:../StdPeripheralDriver/src/stm32f10x_can.c ****   RxMessage->RTR = (uint8_t)0x02 & CANx->sFIFOMailBox[FIFONumber].RIR;
 19485              		.loc 1 687 0
 19486 0064 FB7A     		ldrb	r3, [r7, #11]	@ zero_extendqisi2
 19487 0066 FA68     		ldr	r2, [r7, #12]
 19488 0068 03F11B03 		add	r3, r3, #27
 19489 006c 4FEA0313 		lsl	r3, r3, #4
 19490 0070 D318     		adds	r3, r2, r3
 19491 0072 1B68     		ldr	r3, [r3, #0]
 19492 0074 DBB2     		uxtb	r3, r3
 19493 0076 03F00203 		and	r3, r3, #2
 19494 007a DAB2     		uxtb	r2, r3
 19495 007c 7B68     		ldr	r3, [r7, #4]
 19496 007e 5A72     		strb	r2, [r3, #9]
 688:../StdPeripheralDriver/src/stm32f10x_can.c ****   /* Get the DLC */
 689:../StdPeripheralDriver/src/stm32f10x_can.c ****   RxMessage->DLC = (uint8_t)0x0F & CANx->sFIFOMailBox[FIFONumber].RDTR;
 19497              		.loc 1 689 0
 19498 0080 FB7A     		ldrb	r3, [r7, #11]	@ zero_extendqisi2
 19499 0082 FA68     		ldr	r2, [r7, #12]
 19500 0084 03F11B03 		add	r3, r3, #27
 19501 0088 4FEA0313 		lsl	r3, r3, #4
 19502 008c D318     		adds	r3, r2, r3
 19503 008e 5B68     		ldr	r3, [r3, #4]
 19504 0090 DBB2     		uxtb	r3, r3
 19505 0092 03F00F03 		and	r3, r3, #15
 19506 0096 DAB2     		uxtb	r2, r3
 19507 0098 7B68     		ldr	r3, [r7, #4]
 19508 009a 9A72     		strb	r2, [r3, #10]
 690:../StdPeripheralDriver/src/stm32f10x_can.c ****   /* Get the FMI */
 691:../StdPeripheralDriver/src/stm32f10x_can.c ****   RxMessage->FMI = (uint8_t)0xFF & (CANx->sFIFOMailBox[FIFONumber].RDTR >> 8);
 19509              		.loc 1 691 0
 19510 009c FB7A     		ldrb	r3, [r7, #11]	@ zero_extendqisi2
 19511 009e FA68     		ldr	r2, [r7, #12]
 19512 00a0 03F11B03 		add	r3, r3, #27
 19513 00a4 4FEA0313 		lsl	r3, r3, #4
 19514 00a8 D318     		adds	r3, r2, r3
 19515 00aa 5B68     		ldr	r3, [r3, #4]
 19516 00ac 4FEA1323 		lsr	r3, r3, #8
 19517 00b0 DAB2     		uxtb	r2, r3
 19518 00b2 7B68     		ldr	r3, [r7, #4]
 19519 00b4 DA74     		strb	r2, [r3, #19]
 692:../StdPeripheralDriver/src/stm32f10x_can.c ****   /* Get the data field */
 693:../StdPeripheralDriver/src/stm32f10x_can.c ****   RxMessage->Data[0] = (uint8_t)0xFF & CANx->sFIFOMailBox[FIFONumber].RDLR;
 19520              		.loc 1 693 0
 19521 00b6 FB7A     		ldrb	r3, [r7, #11]	@ zero_extendqisi2
 19522 00b8 FA68     		ldr	r2, [r7, #12]
 19523 00ba 4FEA0313 		lsl	r3, r3, #4
 19524 00be D318     		adds	r3, r2, r3
 19525 00c0 03F5DC73 		add	r3, r3, #440
 19526 00c4 1B68     		ldr	r3, [r3, #0]
 19527 00c6 DAB2     		uxtb	r2, r3
 19528 00c8 7B68     		ldr	r3, [r7, #4]
 19529 00ca DA72     		strb	r2, [r3, #11]
 694:../StdPeripheralDriver/src/stm32f10x_can.c ****   RxMessage->Data[1] = (uint8_t)0xFF & (CANx->sFIFOMailBox[FIFONumber].RDLR >> 8);
 19530              		.loc 1 694 0
 19531 00cc FB7A     		ldrb	r3, [r7, #11]	@ zero_extendqisi2
 19532 00ce FA68     		ldr	r2, [r7, #12]
 19533 00d0 4FEA0313 		lsl	r3, r3, #4
 19534 00d4 D318     		adds	r3, r2, r3
 19535 00d6 03F5DC73 		add	r3, r3, #440
 19536 00da 1B68     		ldr	r3, [r3, #0]
 19537 00dc 4FEA1323 		lsr	r3, r3, #8
 19538 00e0 DAB2     		uxtb	r2, r3
 19539 00e2 7B68     		ldr	r3, [r7, #4]
 19540 00e4 1A73     		strb	r2, [r3, #12]
 695:../StdPeripheralDriver/src/stm32f10x_can.c ****   RxMessage->Data[2] = (uint8_t)0xFF & (CANx->sFIFOMailBox[FIFONumber].RDLR >> 16);
 19541              		.loc 1 695 0
 19542 00e6 FB7A     		ldrb	r3, [r7, #11]	@ zero_extendqisi2
 19543 00e8 FA68     		ldr	r2, [r7, #12]
 19544 00ea 4FEA0313 		lsl	r3, r3, #4
 19545 00ee D318     		adds	r3, r2, r3
 19546 00f0 03F5DC73 		add	r3, r3, #440
 19547 00f4 1B68     		ldr	r3, [r3, #0]
 19548 00f6 4FEA1343 		lsr	r3, r3, #16
 19549 00fa DAB2     		uxtb	r2, r3
 19550 00fc 7B68     		ldr	r3, [r7, #4]
 19551 00fe 5A73     		strb	r2, [r3, #13]
 696:../StdPeripheralDriver/src/stm32f10x_can.c ****   RxMessage->Data[3] = (uint8_t)0xFF & (CANx->sFIFOMailBox[FIFONumber].RDLR >> 24);
 19552              		.loc 1 696 0
 19553 0100 FB7A     		ldrb	r3, [r7, #11]	@ zero_extendqisi2
 19554 0102 FA68     		ldr	r2, [r7, #12]
 19555 0104 4FEA0313 		lsl	r3, r3, #4
 19556 0108 D318     		adds	r3, r2, r3
 19557 010a 03F5DC73 		add	r3, r3, #440
 19558 010e 1B68     		ldr	r3, [r3, #0]
 19559 0110 4FEA1363 		lsr	r3, r3, #24
 19560 0114 DAB2     		uxtb	r2, r3
 19561 0116 7B68     		ldr	r3, [r7, #4]
 19562 0118 9A73     		strb	r2, [r3, #14]
 697:../StdPeripheralDriver/src/stm32f10x_can.c ****   RxMessage->Data[4] = (uint8_t)0xFF & CANx->sFIFOMailBox[FIFONumber].RDHR;
 19563              		.loc 1 697 0
 19564 011a FB7A     		ldrb	r3, [r7, #11]	@ zero_extendqisi2
 19565 011c FA68     		ldr	r2, [r7, #12]
 19566 011e 4FEA0313 		lsl	r3, r3, #4
 19567 0122 D318     		adds	r3, r2, r3
 19568 0124 03F5DC73 		add	r3, r3, #440
 19569 0128 5B68     		ldr	r3, [r3, #4]
 19570 012a DAB2     		uxtb	r2, r3
 19571 012c 7B68     		ldr	r3, [r7, #4]
 19572 012e DA73     		strb	r2, [r3, #15]
 698:../StdPeripheralDriver/src/stm32f10x_can.c ****   RxMessage->Data[5] = (uint8_t)0xFF & (CANx->sFIFOMailBox[FIFONumber].RDHR >> 8);
 19573              		.loc 1 698 0
 19574 0130 FB7A     		ldrb	r3, [r7, #11]	@ zero_extendqisi2
 19575 0132 FA68     		ldr	r2, [r7, #12]
 19576 0134 4FEA0313 		lsl	r3, r3, #4
 19577 0138 D318     		adds	r3, r2, r3
 19578 013a 03F5DC73 		add	r3, r3, #440
 19579 013e 5B68     		ldr	r3, [r3, #4]
 19580 0140 4FEA1323 		lsr	r3, r3, #8
 19581 0144 DAB2     		uxtb	r2, r3
 19582 0146 7B68     		ldr	r3, [r7, #4]
 19583 0148 1A74     		strb	r2, [r3, #16]
 699:../StdPeripheralDriver/src/stm32f10x_can.c ****   RxMessage->Data[6] = (uint8_t)0xFF & (CANx->sFIFOMailBox[FIFONumber].RDHR >> 16);
 19584              		.loc 1 699 0
 19585 014a FB7A     		ldrb	r3, [r7, #11]	@ zero_extendqisi2
 19586 014c FA68     		ldr	r2, [r7, #12]
 19587 014e 4FEA0313 		lsl	r3, r3, #4
 19588 0152 D318     		adds	r3, r2, r3
 19589 0154 03F5DC73 		add	r3, r3, #440
 19590 0158 5B68     		ldr	r3, [r3, #4]
 19591 015a 4FEA1343 		lsr	r3, r3, #16
 19592 015e DAB2     		uxtb	r2, r3
 19593 0160 7B68     		ldr	r3, [r7, #4]
 19594 0162 5A74     		strb	r2, [r3, #17]
 700:../StdPeripheralDriver/src/stm32f10x_can.c ****   RxMessage->Data[7] = (uint8_t)0xFF & (CANx->sFIFOMailBox[FIFONumber].RDHR >> 24);
 19595              		.loc 1 700 0
 19596 0164 FB7A     		ldrb	r3, [r7, #11]	@ zero_extendqisi2
 19597 0166 FA68     		ldr	r2, [r7, #12]
 19598 0168 4FEA0313 		lsl	r3, r3, #4
 19599 016c D318     		adds	r3, r2, r3
 19600 016e 03F5DC73 		add	r3, r3, #440
 19601 0172 5B68     		ldr	r3, [r3, #4]
 19602 0174 4FEA1363 		lsr	r3, r3, #24
 19603 0178 DAB2     		uxtb	r2, r3
 19604 017a 7B68     		ldr	r3, [r7, #4]
 19605 017c 9A74     		strb	r2, [r3, #18]
 701:../StdPeripheralDriver/src/stm32f10x_can.c ****   /* Release the FIFO */
 702:../StdPeripheralDriver/src/stm32f10x_can.c ****   /* Release FIFO0 */
 703:../StdPeripheralDriver/src/stm32f10x_can.c ****   if (FIFONumber == CAN_FIFO0)
 19606              		.loc 1 703 0
 19607 017e FB7A     		ldrb	r3, [r7, #11]	@ zero_extendqisi2
 19608 0180 002B     		cmp	r3, #0
 19609 0182 06D1     		bne	.L85
 704:../StdPeripheralDriver/src/stm32f10x_can.c ****   {
 705:../StdPeripheralDriver/src/stm32f10x_can.c ****     CANx->RF0R |= CAN_RF0R_RFOM0;
 19610              		.loc 1 705 0
 19611 0184 FB68     		ldr	r3, [r7, #12]
 19612 0186 DB68     		ldr	r3, [r3, #12]
 19613 0188 43F02002 		orr	r2, r3, #32
 19614 018c FB68     		ldr	r3, [r7, #12]
 19615 018e DA60     		str	r2, [r3, #12]
 19616 0190 05E0     		b	.L82
 19617              	.L85:
 706:../StdPeripheralDriver/src/stm32f10x_can.c ****   }
 707:../StdPeripheralDriver/src/stm32f10x_can.c ****   /* Release FIFO1 */
 708:../StdPeripheralDriver/src/stm32f10x_can.c ****   else /* FIFONumber == CAN_FIFO1 */
 709:../StdPeripheralDriver/src/stm32f10x_can.c ****   {
 710:../StdPeripheralDriver/src/stm32f10x_can.c ****     CANx->RF1R |= CAN_RF1R_RFOM1;
 19618              		.loc 1 710 0
 19619 0192 FB68     		ldr	r3, [r7, #12]
 19620 0194 1B69     		ldr	r3, [r3, #16]
 19621 0196 43F02002 		orr	r2, r3, #32
 19622 019a FB68     		ldr	r3, [r7, #12]
 19623 019c 1A61     		str	r2, [r3, #16]
 19624              	.L82:
 711:../StdPeripheralDriver/src/stm32f10x_can.c ****   }
 712:../StdPeripheralDriver/src/stm32f10x_can.c **** }
 19625              		.loc 1 712 0
 19626 019e 07F11407 		add	r7, r7, #20
 19627 01a2 BD46     		mov	sp, r7
 19628 01a4 80BC     		pop	{r7}
 19629 01a6 7047     		bx	lr
 19630              		.cfi_endproc
 19631              	.LFE39:
 19633              		.section	.text.CAN_FIFORelease,"ax",%progbits
 19634              		.align	2
 19635              		.global	CAN_FIFORelease
 19636              		.thumb
 19637              		.thumb_func
 19639              	CAN_FIFORelease:
 19640              	.LFB40:
 713:../StdPeripheralDriver/src/stm32f10x_can.c **** 
 714:../StdPeripheralDriver/src/stm32f10x_can.c **** /**
 715:../StdPeripheralDriver/src/stm32f10x_can.c ****   * @brief  Releases the specified FIFO.
 716:../StdPeripheralDriver/src/stm32f10x_can.c ****   * @param  CANx:       where x can be 1 or 2 to to select the CAN peripheral. 
 717:../StdPeripheralDriver/src/stm32f10x_can.c ****   * @param  FIFONumber: FIFO to release, CAN_FIFO0 or CAN_FIFO1.
 718:../StdPeripheralDriver/src/stm32f10x_can.c ****   * @retval None.
 719:../StdPeripheralDriver/src/stm32f10x_can.c ****   */
 720:../StdPeripheralDriver/src/stm32f10x_can.c **** void CAN_FIFORelease(CAN_TypeDef* CANx, uint8_t FIFONumber)
 721:../StdPeripheralDriver/src/stm32f10x_can.c **** {
 19641              		.loc 1 721 0
 19642              		.cfi_startproc
 19643              		@ args = 0, pretend = 0, frame = 8
 19644              		@ frame_needed = 1, uses_anonymous_args = 0
 19645              		@ link register save eliminated.
 19646 0000 80B4     		push	{r7}
 19647              	.LCFI33:
 19648              		.cfi_def_cfa_offset 4
 19649 0002 83B0     		sub	sp, sp, #12
 19650              	.LCFI34:
 19651              		.cfi_def_cfa_offset 16
 19652 0004 00AF     		add	r7, sp, #0
 19653              		.cfi_offset 7, -4
 19654              	.LCFI35:
 19655              		.cfi_def_cfa_register 7
 19656 0006 7860     		str	r0, [r7, #4]
 19657 0008 0B46     		mov	r3, r1
 19658 000a FB70     		strb	r3, [r7, #3]
 722:../StdPeripheralDriver/src/stm32f10x_can.c ****   /* Check the parameters */
 723:../StdPeripheralDriver/src/stm32f10x_can.c ****   assert_param(IS_CAN_ALL_PERIPH(CANx));
 724:../StdPeripheralDriver/src/stm32f10x_can.c ****   assert_param(IS_CAN_FIFO(FIFONumber));
 725:../StdPeripheralDriver/src/stm32f10x_can.c ****   /* Release FIFO0 */
 726:../StdPeripheralDriver/src/stm32f10x_can.c ****   if (FIFONumber == CAN_FIFO0)
 19659              		.loc 1 726 0
 19660 000c FB78     		ldrb	r3, [r7, #3]	@ zero_extendqisi2
 19661 000e 002B     		cmp	r3, #0
 19662 0010 06D1     		bne	.L88
 727:../StdPeripheralDriver/src/stm32f10x_can.c ****   {
 728:../StdPeripheralDriver/src/stm32f10x_can.c ****     CANx->RF0R |= CAN_RF0R_RFOM0;
 19663              		.loc 1 728 0
 19664 0012 7B68     		ldr	r3, [r7, #4]
 19665 0014 DB68     		ldr	r3, [r3, #12]
 19666 0016 43F02002 		orr	r2, r3, #32
 19667 001a 7B68     		ldr	r3, [r7, #4]
 19668 001c DA60     		str	r2, [r3, #12]
 19669 001e 05E0     		b	.L87
 19670              	.L88:
 729:../StdPeripheralDriver/src/stm32f10x_can.c ****   }
 730:../StdPeripheralDriver/src/stm32f10x_can.c ****   /* Release FIFO1 */
 731:../StdPeripheralDriver/src/stm32f10x_can.c ****   else /* FIFONumber == CAN_FIFO1 */
 732:../StdPeripheralDriver/src/stm32f10x_can.c ****   {
 733:../StdPeripheralDriver/src/stm32f10x_can.c ****     CANx->RF1R |= CAN_RF1R_RFOM1;
 19671              		.loc 1 733 0
 19672 0020 7B68     		ldr	r3, [r7, #4]
 19673 0022 1B69     		ldr	r3, [r3, #16]
 19674 0024 43F02002 		orr	r2, r3, #32
 19675 0028 7B68     		ldr	r3, [r7, #4]
 19676 002a 1A61     		str	r2, [r3, #16]
 19677              	.L87:
 734:../StdPeripheralDriver/src/stm32f10x_can.c ****   }
 735:../StdPeripheralDriver/src/stm32f10x_can.c **** }
 19678              		.loc 1 735 0
 19679 002c 07F10C07 		add	r7, r7, #12
 19680 0030 BD46     		mov	sp, r7
 19681 0032 80BC     		pop	{r7}
 19682 0034 7047     		bx	lr
 19683              		.cfi_endproc
 19684              	.LFE40:
 19686 0036 00BF     		.section	.text.CAN_MessagePending,"ax",%progbits
 19687              		.align	2
 19688              		.global	CAN_MessagePending
 19689              		.thumb
 19690              		.thumb_func
 19692              	CAN_MessagePending:
 19693              	.LFB41:
 736:../StdPeripheralDriver/src/stm32f10x_can.c **** 
 737:../StdPeripheralDriver/src/stm32f10x_can.c **** /**
 738:../StdPeripheralDriver/src/stm32f10x_can.c ****   * @brief  Returns the number of pending messages.
 739:../StdPeripheralDriver/src/stm32f10x_can.c ****   * @param  CANx:       where x can be 1 or 2 to to select the CAN peripheral.
 740:../StdPeripheralDriver/src/stm32f10x_can.c ****   * @param  FIFONumber: Receive FIFO number, CAN_FIFO0 or CAN_FIFO1.
 741:../StdPeripheralDriver/src/stm32f10x_can.c ****   * @retval NbMessage : which is the number of pending message.
 742:../StdPeripheralDriver/src/stm32f10x_can.c ****   */
 743:../StdPeripheralDriver/src/stm32f10x_can.c **** uint8_t CAN_MessagePending(CAN_TypeDef* CANx, uint8_t FIFONumber)
 744:../StdPeripheralDriver/src/stm32f10x_can.c **** {
 19694              		.loc 1 744 0
 19695              		.cfi_startproc
 19696              		@ args = 0, pretend = 0, frame = 16
 19697              		@ frame_needed = 1, uses_anonymous_args = 0
 19698              		@ link register save eliminated.
 19699 0000 80B4     		push	{r7}
 19700              	.LCFI36:
 19701              		.cfi_def_cfa_offset 4
 19702 0002 85B0     		sub	sp, sp, #20
 19703              	.LCFI37:
 19704              		.cfi_def_cfa_offset 24
 19705 0004 00AF     		add	r7, sp, #0
 19706              		.cfi_offset 7, -4
 19707              	.LCFI38:
 19708              		.cfi_def_cfa_register 7
 19709 0006 7860     		str	r0, [r7, #4]
 19710 0008 0B46     		mov	r3, r1
 19711 000a FB70     		strb	r3, [r7, #3]
 745:../StdPeripheralDriver/src/stm32f10x_can.c ****   uint8_t message_pending=0;
 19712              		.loc 1 745 0
 19713 000c 4FF00003 		mov	r3, #0
 19714 0010 FB73     		strb	r3, [r7, #15]
 746:../StdPeripheralDriver/src/stm32f10x_can.c ****   /* Check the parameters */
 747:../StdPeripheralDriver/src/stm32f10x_can.c ****   assert_param(IS_CAN_ALL_PERIPH(CANx));
 748:../StdPeripheralDriver/src/stm32f10x_can.c ****   assert_param(IS_CAN_FIFO(FIFONumber));
 749:../StdPeripheralDriver/src/stm32f10x_can.c ****   if (FIFONumber == CAN_FIFO0)
 19715              		.loc 1 749 0
 19716 0012 FB78     		ldrb	r3, [r7, #3]	@ zero_extendqisi2
 19717 0014 002B     		cmp	r3, #0
 19718 0016 06D1     		bne	.L91
 750:../StdPeripheralDriver/src/stm32f10x_can.c ****   {
 751:../StdPeripheralDriver/src/stm32f10x_can.c ****     message_pending = (uint8_t)(CANx->RF0R&(uint32_t)0x03);
 19719              		.loc 1 751 0
 19720 0018 7B68     		ldr	r3, [r7, #4]
 19721 001a DB68     		ldr	r3, [r3, #12]
 19722 001c DBB2     		uxtb	r3, r3
 19723 001e 03F00303 		and	r3, r3, #3
 19724 0022 FB73     		strb	r3, [r7, #15]
 19725 0024 0CE0     		b	.L92
 19726              	.L91:
 752:../StdPeripheralDriver/src/stm32f10x_can.c ****   }
 753:../StdPeripheralDriver/src/stm32f10x_can.c ****   else if (FIFONumber == CAN_FIFO1)
 19727              		.loc 1 753 0
 19728 0026 FB78     		ldrb	r3, [r7, #3]	@ zero_extendqisi2
 19729 0028 012B     		cmp	r3, #1
 19730 002a 06D1     		bne	.L93
 754:../StdPeripheralDriver/src/stm32f10x_can.c ****   {
 755:../StdPeripheralDriver/src/stm32f10x_can.c ****     message_pending = (uint8_t)(CANx->RF1R&(uint32_t)0x03);
 19731              		.loc 1 755 0
 19732 002c 7B68     		ldr	r3, [r7, #4]
 19733 002e 1B69     		ldr	r3, [r3, #16]
 19734 0030 DBB2     		uxtb	r3, r3
 19735 0032 03F00303 		and	r3, r3, #3
 19736 0036 FB73     		strb	r3, [r7, #15]
 19737 0038 02E0     		b	.L92
 19738              	.L93:
 756:../StdPeripheralDriver/src/stm32f10x_can.c ****   }
 757:../StdPeripheralDriver/src/stm32f10x_can.c ****   else
 758:../StdPeripheralDriver/src/stm32f10x_can.c ****   {
 759:../StdPeripheralDriver/src/stm32f10x_can.c ****     message_pending = 0;
 19739              		.loc 1 759 0
 19740 003a 4FF00003 		mov	r3, #0
 19741 003e FB73     		strb	r3, [r7, #15]
 19742              	.L92:
 760:../StdPeripheralDriver/src/stm32f10x_can.c ****   }
 761:../StdPeripheralDriver/src/stm32f10x_can.c ****   return message_pending;
 19743              		.loc 1 761 0
 19744 0040 FB7B     		ldrb	r3, [r7, #15]	@ zero_extendqisi2
 762:../StdPeripheralDriver/src/stm32f10x_can.c **** }
 19745              		.loc 1 762 0
 19746 0042 1846     		mov	r0, r3
 19747 0044 07F11407 		add	r7, r7, #20
 19748 0048 BD46     		mov	sp, r7
 19749 004a 80BC     		pop	{r7}
 19750 004c 7047     		bx	lr
 19751              		.cfi_endproc
 19752              	.LFE41:
 19754 004e 00BF     		.section	.text.CAN_OperatingModeRequest,"ax",%progbits
 19755              		.align	2
 19756              		.global	CAN_OperatingModeRequest
 19757              		.thumb
 19758              		.thumb_func
 19760              	CAN_OperatingModeRequest:
 19761              	.LFB42:
 763:../StdPeripheralDriver/src/stm32f10x_can.c **** 
 764:../StdPeripheralDriver/src/stm32f10x_can.c **** 
 765:../StdPeripheralDriver/src/stm32f10x_can.c **** /**
 766:../StdPeripheralDriver/src/stm32f10x_can.c ****   * @brief   Select the CAN Operation mode.
 767:../StdPeripheralDriver/src/stm32f10x_can.c ****   * @param CAN_OperatingMode : CAN Operating Mode. This parameter can be one 
 768:../StdPeripheralDriver/src/stm32f10x_can.c ****   *                            of @ref CAN_OperatingMode_TypeDef enumeration.
 769:../StdPeripheralDriver/src/stm32f10x_can.c ****   * @retval status of the requested mode which can be 
 770:../StdPeripheralDriver/src/stm32f10x_can.c ****   *         - CAN_ModeStatus_Failed    CAN failed entering the specific mode 
 771:../StdPeripheralDriver/src/stm32f10x_can.c ****   *         - CAN_ModeStatus_Success   CAN Succeed entering the specific mode 
 772:../StdPeripheralDriver/src/stm32f10x_can.c **** 
 773:../StdPeripheralDriver/src/stm32f10x_can.c ****   */
 774:../StdPeripheralDriver/src/stm32f10x_can.c **** uint8_t CAN_OperatingModeRequest(CAN_TypeDef* CANx, uint8_t CAN_OperatingMode)
 775:../StdPeripheralDriver/src/stm32f10x_can.c **** {
 19762              		.loc 1 775 0
 19763              		.cfi_startproc
 19764              		@ args = 0, pretend = 0, frame = 16
 19765              		@ frame_needed = 1, uses_anonymous_args = 0
 19766              		@ link register save eliminated.
 19767 0000 80B4     		push	{r7}
 19768              	.LCFI39:
 19769              		.cfi_def_cfa_offset 4
 19770 0002 85B0     		sub	sp, sp, #20
 19771              	.LCFI40:
 19772              		.cfi_def_cfa_offset 24
 19773 0004 00AF     		add	r7, sp, #0
 19774              		.cfi_offset 7, -4
 19775              	.LCFI41:
 19776              		.cfi_def_cfa_register 7
 19777 0006 7860     		str	r0, [r7, #4]
 19778 0008 0B46     		mov	r3, r1
 19779 000a FB70     		strb	r3, [r7, #3]
 776:../StdPeripheralDriver/src/stm32f10x_can.c ****   uint8_t status = CAN_ModeStatus_Failed;
 19780              		.loc 1 776 0
 19781 000c 4FF00003 		mov	r3, #0
 19782 0010 FB73     		strb	r3, [r7, #15]
 777:../StdPeripheralDriver/src/stm32f10x_can.c ****   
 778:../StdPeripheralDriver/src/stm32f10x_can.c ****   /* Timeout for INAK or also for SLAK bits*/
 779:../StdPeripheralDriver/src/stm32f10x_can.c ****   uint32_t timeout = INAK_TIMEOUT; 
 19783              		.loc 1 779 0
 19784 0012 4FF6FF73 		movw	r3, #65535
 19785 0016 BB60     		str	r3, [r7, #8]
 780:../StdPeripheralDriver/src/stm32f10x_can.c **** 
 781:../StdPeripheralDriver/src/stm32f10x_can.c ****   /* Check the parameters */
 782:../StdPeripheralDriver/src/stm32f10x_can.c ****   assert_param(IS_CAN_ALL_PERIPH(CANx));
 783:../StdPeripheralDriver/src/stm32f10x_can.c ****   assert_param(IS_CAN_OPERATING_MODE(CAN_OperatingMode));
 784:../StdPeripheralDriver/src/stm32f10x_can.c **** 
 785:../StdPeripheralDriver/src/stm32f10x_can.c ****   if (CAN_OperatingMode == CAN_OperatingMode_Initialization)
 19786              		.loc 1 785 0
 19787 0018 FB78     		ldrb	r3, [r7, #3]	@ zero_extendqisi2
 19788 001a 002B     		cmp	r3, #0
 19789 001c 23D1     		bne	.L95
 786:../StdPeripheralDriver/src/stm32f10x_can.c ****   {
 787:../StdPeripheralDriver/src/stm32f10x_can.c ****     /* Request initialisation */
 788:../StdPeripheralDriver/src/stm32f10x_can.c ****     CANx->MCR = (uint32_t)((CANx->MCR & (uint32_t)(~(uint32_t)CAN_MCR_SLEEP)) | CAN_MCR_INRQ);
 19790              		.loc 1 788 0
 19791 001e 7B68     		ldr	r3, [r7, #4]
 19792 0020 1B68     		ldr	r3, [r3, #0]
 19793 0022 23F00303 		bic	r3, r3, #3
 19794 0026 43F00102 		orr	r2, r3, #1
 19795 002a 7B68     		ldr	r3, [r7, #4]
 19796 002c 1A60     		str	r2, [r3, #0]
 789:../StdPeripheralDriver/src/stm32f10x_can.c **** 
 790:../StdPeripheralDriver/src/stm32f10x_can.c ****     /* Wait the acknowledge */
 791:../StdPeripheralDriver/src/stm32f10x_can.c ****     while (((CANx->MSR & CAN_MODE_MASK) != CAN_MSR_INAK) && (timeout != 0))
 19797              		.loc 1 791 0
 19798 002e 03E0     		b	.L96
 19799              	.L98:
 792:../StdPeripheralDriver/src/stm32f10x_can.c ****     {
 793:../StdPeripheralDriver/src/stm32f10x_can.c ****       timeout--;
 19800              		.loc 1 793 0
 19801 0030 BB68     		ldr	r3, [r7, #8]
 19802 0032 03F1FF33 		add	r3, r3, #-1
 19803 0036 BB60     		str	r3, [r7, #8]
 19804              	.L96:
 791:../StdPeripheralDriver/src/stm32f10x_can.c ****     while (((CANx->MSR & CAN_MODE_MASK) != CAN_MSR_INAK) && (timeout != 0))
 19805              		.loc 1 791 0 discriminator 1
 19806 0038 7B68     		ldr	r3, [r7, #4]
 19807 003a 5B68     		ldr	r3, [r3, #4]
 19808 003c 03F00303 		and	r3, r3, #3
 19809 0040 012B     		cmp	r3, #1
 19810 0042 02D0     		beq	.L97
 791:../StdPeripheralDriver/src/stm32f10x_can.c ****     while (((CANx->MSR & CAN_MODE_MASK) != CAN_MSR_INAK) && (timeout != 0))
 19811              		.loc 1 791 0 is_stmt 0 discriminator 2
 19812 0044 BB68     		ldr	r3, [r7, #8]
 19813 0046 002B     		cmp	r3, #0
 19814 0048 F2D1     		bne	.L98
 19815              	.L97:
 794:../StdPeripheralDriver/src/stm32f10x_can.c ****     }
 795:../StdPeripheralDriver/src/stm32f10x_can.c ****     if ((CANx->MSR & CAN_MODE_MASK) != CAN_MSR_INAK)
 19816              		.loc 1 795 0 is_stmt 1
 19817 004a 7B68     		ldr	r3, [r7, #4]
 19818 004c 5B68     		ldr	r3, [r3, #4]
 19819 004e 03F00303 		and	r3, r3, #3
 19820 0052 012B     		cmp	r3, #1
 19821 0054 03D0     		beq	.L99
 796:../StdPeripheralDriver/src/stm32f10x_can.c ****     {
 797:../StdPeripheralDriver/src/stm32f10x_can.c ****       status = CAN_ModeStatus_Failed;
 19822              		.loc 1 797 0
 19823 0056 4FF00003 		mov	r3, #0
 19824 005a FB73     		strb	r3, [r7, #15]
 19825 005c 52E0     		b	.L100
 19826              	.L99:
 798:../StdPeripheralDriver/src/stm32f10x_can.c ****     }
 799:../StdPeripheralDriver/src/stm32f10x_can.c ****     else
 800:../StdPeripheralDriver/src/stm32f10x_can.c ****     {
 801:../StdPeripheralDriver/src/stm32f10x_can.c ****       status = CAN_ModeStatus_Success;
 19827              		.loc 1 801 0
 19828 005e 4FF00103 		mov	r3, #1
 19829 0062 FB73     		strb	r3, [r7, #15]
 19830 0064 4EE0     		b	.L100
 19831              	.L95:
 802:../StdPeripheralDriver/src/stm32f10x_can.c ****     }
 803:../StdPeripheralDriver/src/stm32f10x_can.c ****   }
 804:../StdPeripheralDriver/src/stm32f10x_can.c ****   else  if (CAN_OperatingMode == CAN_OperatingMode_Normal)
 19832              		.loc 1 804 0
 19833 0066 FB78     		ldrb	r3, [r7, #3]	@ zero_extendqisi2
 19834 0068 012B     		cmp	r3, #1
 19835 006a 21D1     		bne	.L101
 805:../StdPeripheralDriver/src/stm32f10x_can.c ****   {
 806:../StdPeripheralDriver/src/stm32f10x_can.c ****     /* Request leave initialisation and sleep mode  and enter Normal mode */
 807:../StdPeripheralDriver/src/stm32f10x_can.c ****     CANx->MCR &= (uint32_t)(~(CAN_MCR_SLEEP|CAN_MCR_INRQ));
 19836              		.loc 1 807 0
 19837 006c 7B68     		ldr	r3, [r7, #4]
 19838 006e 1B68     		ldr	r3, [r3, #0]
 19839 0070 23F00302 		bic	r2, r3, #3
 19840 0074 7B68     		ldr	r3, [r7, #4]
 19841 0076 1A60     		str	r2, [r3, #0]
 808:../StdPeripheralDriver/src/stm32f10x_can.c **** 
 809:../StdPeripheralDriver/src/stm32f10x_can.c ****     /* Wait the acknowledge */
 810:../StdPeripheralDriver/src/stm32f10x_can.c ****     while (((CANx->MSR & CAN_MODE_MASK) != 0) && (timeout!=0))
 19842              		.loc 1 810 0
 19843 0078 03E0     		b	.L102
 19844              	.L104:
 811:../StdPeripheralDriver/src/stm32f10x_can.c ****     {
 812:../StdPeripheralDriver/src/stm32f10x_can.c ****       timeout--;
 19845              		.loc 1 812 0
 19846 007a BB68     		ldr	r3, [r7, #8]
 19847 007c 03F1FF33 		add	r3, r3, #-1
 19848 0080 BB60     		str	r3, [r7, #8]
 19849              	.L102:
 810:../StdPeripheralDriver/src/stm32f10x_can.c ****     while (((CANx->MSR & CAN_MODE_MASK) != 0) && (timeout!=0))
 19850              		.loc 1 810 0 discriminator 1
 19851 0082 7B68     		ldr	r3, [r7, #4]
 19852 0084 5B68     		ldr	r3, [r3, #4]
 19853 0086 03F00303 		and	r3, r3, #3
 19854 008a 002B     		cmp	r3, #0
 19855 008c 02D0     		beq	.L103
 810:../StdPeripheralDriver/src/stm32f10x_can.c ****     while (((CANx->MSR & CAN_MODE_MASK) != 0) && (timeout!=0))
 19856              		.loc 1 810 0 is_stmt 0 discriminator 2
 19857 008e BB68     		ldr	r3, [r7, #8]
 19858 0090 002B     		cmp	r3, #0
 19859 0092 F2D1     		bne	.L104
 19860              	.L103:
 813:../StdPeripheralDriver/src/stm32f10x_can.c ****     }
 814:../StdPeripheralDriver/src/stm32f10x_can.c ****     if ((CANx->MSR & CAN_MODE_MASK) != 0)
 19861              		.loc 1 814 0 is_stmt 1
 19862 0094 7B68     		ldr	r3, [r7, #4]
 19863 0096 5B68     		ldr	r3, [r3, #4]
 19864 0098 03F00303 		and	r3, r3, #3
 19865 009c 002B     		cmp	r3, #0
 19866 009e 03D0     		beq	.L105
 815:../StdPeripheralDriver/src/stm32f10x_can.c ****     {
 816:../StdPeripheralDriver/src/stm32f10x_can.c ****       status = CAN_ModeStatus_Failed;
 19867              		.loc 1 816 0
 19868 00a0 4FF00003 		mov	r3, #0
 19869 00a4 FB73     		strb	r3, [r7, #15]
 19870 00a6 2DE0     		b	.L100
 19871              	.L105:
 817:../StdPeripheralDriver/src/stm32f10x_can.c ****     }
 818:../StdPeripheralDriver/src/stm32f10x_can.c ****     else
 819:../StdPeripheralDriver/src/stm32f10x_can.c ****     {
 820:../StdPeripheralDriver/src/stm32f10x_can.c ****       status = CAN_ModeStatus_Success;
 19872              		.loc 1 820 0
 19873 00a8 4FF00103 		mov	r3, #1
 19874 00ac FB73     		strb	r3, [r7, #15]
 19875 00ae 29E0     		b	.L100
 19876              	.L101:
 821:../StdPeripheralDriver/src/stm32f10x_can.c ****     }
 822:../StdPeripheralDriver/src/stm32f10x_can.c ****   }
 823:../StdPeripheralDriver/src/stm32f10x_can.c ****   else  if (CAN_OperatingMode == CAN_OperatingMode_Sleep)
 19877              		.loc 1 823 0
 19878 00b0 FB78     		ldrb	r3, [r7, #3]	@ zero_extendqisi2
 19879 00b2 022B     		cmp	r3, #2
 19880 00b4 23D1     		bne	.L106
 824:../StdPeripheralDriver/src/stm32f10x_can.c ****   {
 825:../StdPeripheralDriver/src/stm32f10x_can.c ****     /* Request Sleep mode */
 826:../StdPeripheralDriver/src/stm32f10x_can.c ****     CANx->MCR = (uint32_t)((CANx->MCR & (uint32_t)(~(uint32_t)CAN_MCR_INRQ)) | CAN_MCR_SLEEP);
 19881              		.loc 1 826 0
 19882 00b6 7B68     		ldr	r3, [r7, #4]
 19883 00b8 1B68     		ldr	r3, [r3, #0]
 19884 00ba 23F00303 		bic	r3, r3, #3
 19885 00be 43F00202 		orr	r2, r3, #2
 19886 00c2 7B68     		ldr	r3, [r7, #4]
 19887 00c4 1A60     		str	r2, [r3, #0]
 827:../StdPeripheralDriver/src/stm32f10x_can.c **** 
 828:../StdPeripheralDriver/src/stm32f10x_can.c ****     /* Wait the acknowledge */
 829:../StdPeripheralDriver/src/stm32f10x_can.c ****     while (((CANx->MSR & CAN_MODE_MASK) != CAN_MSR_SLAK) && (timeout!=0))
 19888              		.loc 1 829 0
 19889 00c6 03E0     		b	.L107
 19890              	.L109:
 830:../StdPeripheralDriver/src/stm32f10x_can.c ****     {
 831:../StdPeripheralDriver/src/stm32f10x_can.c ****       timeout--;
 19891              		.loc 1 831 0
 19892 00c8 BB68     		ldr	r3, [r7, #8]
 19893 00ca 03F1FF33 		add	r3, r3, #-1
 19894 00ce BB60     		str	r3, [r7, #8]
 19895              	.L107:
 829:../StdPeripheralDriver/src/stm32f10x_can.c ****     while (((CANx->MSR & CAN_MODE_MASK) != CAN_MSR_SLAK) && (timeout!=0))
 19896              		.loc 1 829 0 discriminator 1
 19897 00d0 7B68     		ldr	r3, [r7, #4]
 19898 00d2 5B68     		ldr	r3, [r3, #4]
 19899 00d4 03F00303 		and	r3, r3, #3
 19900 00d8 022B     		cmp	r3, #2
 19901 00da 02D0     		beq	.L108
 829:../StdPeripheralDriver/src/stm32f10x_can.c ****     while (((CANx->MSR & CAN_MODE_MASK) != CAN_MSR_SLAK) && (timeout!=0))
 19902              		.loc 1 829 0 is_stmt 0 discriminator 2
 19903 00dc BB68     		ldr	r3, [r7, #8]
 19904 00de 002B     		cmp	r3, #0
 19905 00e0 F2D1     		bne	.L109
 19906              	.L108:
 832:../StdPeripheralDriver/src/stm32f10x_can.c ****     }
 833:../StdPeripheralDriver/src/stm32f10x_can.c ****     if ((CANx->MSR & CAN_MODE_MASK) != CAN_MSR_SLAK)
 19907              		.loc 1 833 0 is_stmt 1
 19908 00e2 7B68     		ldr	r3, [r7, #4]
 19909 00e4 5B68     		ldr	r3, [r3, #4]
 19910 00e6 03F00303 		and	r3, r3, #3
 19911 00ea 022B     		cmp	r3, #2
 19912 00ec 03D0     		beq	.L110
 834:../StdPeripheralDriver/src/stm32f10x_can.c ****     {
 835:../StdPeripheralDriver/src/stm32f10x_can.c ****       status = CAN_ModeStatus_Failed;
 19913              		.loc 1 835 0
 19914 00ee 4FF00003 		mov	r3, #0
 19915 00f2 FB73     		strb	r3, [r7, #15]
 19916 00f4 06E0     		b	.L100
 19917              	.L110:
 836:../StdPeripheralDriver/src/stm32f10x_can.c ****     }
 837:../StdPeripheralDriver/src/stm32f10x_can.c ****     else
 838:../StdPeripheralDriver/src/stm32f10x_can.c ****     {
 839:../StdPeripheralDriver/src/stm32f10x_can.c ****       status = CAN_ModeStatus_Success;
 19918              		.loc 1 839 0
 19919 00f6 4FF00103 		mov	r3, #1
 19920 00fa FB73     		strb	r3, [r7, #15]
 19921 00fc 02E0     		b	.L100
 19922              	.L106:
 840:../StdPeripheralDriver/src/stm32f10x_can.c ****     }
 841:../StdPeripheralDriver/src/stm32f10x_can.c ****   }
 842:../StdPeripheralDriver/src/stm32f10x_can.c ****   else
 843:../StdPeripheralDriver/src/stm32f10x_can.c ****   {
 844:../StdPeripheralDriver/src/stm32f10x_can.c ****     status = CAN_ModeStatus_Failed;
 19923              		.loc 1 844 0
 19924 00fe 4FF00003 		mov	r3, #0
 19925 0102 FB73     		strb	r3, [r7, #15]
 19926              	.L100:
 845:../StdPeripheralDriver/src/stm32f10x_can.c ****   }
 846:../StdPeripheralDriver/src/stm32f10x_can.c **** 
 847:../StdPeripheralDriver/src/stm32f10x_can.c ****   return  (uint8_t) status;
 19927              		.loc 1 847 0
 19928 0104 FB7B     		ldrb	r3, [r7, #15]	@ zero_extendqisi2
 848:../StdPeripheralDriver/src/stm32f10x_can.c **** }
 19929              		.loc 1 848 0
 19930 0106 1846     		mov	r0, r3
 19931 0108 07F11407 		add	r7, r7, #20
 19932 010c BD46     		mov	sp, r7
 19933 010e 80BC     		pop	{r7}
 19934 0110 7047     		bx	lr
 19935              		.cfi_endproc
 19936              	.LFE42:
 19938 0112 00BF     		.section	.text.CAN_Sleep,"ax",%progbits
 19939              		.align	2
 19940              		.global	CAN_Sleep
 19941              		.thumb
 19942              		.thumb_func
 19944              	CAN_Sleep:
 19945              	.LFB43:
 849:../StdPeripheralDriver/src/stm32f10x_can.c **** 
 850:../StdPeripheralDriver/src/stm32f10x_can.c **** /**
 851:../StdPeripheralDriver/src/stm32f10x_can.c ****   * @brief  Enters the low power mode.
 852:../StdPeripheralDriver/src/stm32f10x_can.c ****   * @param  CANx:   where x can be 1 or 2 to to select the CAN peripheral.
 853:../StdPeripheralDriver/src/stm32f10x_can.c ****   * @retval status: CAN_Sleep_Ok if sleep entered, CAN_Sleep_Failed in an 
 854:../StdPeripheralDriver/src/stm32f10x_can.c ****   *                 other case.
 855:../StdPeripheralDriver/src/stm32f10x_can.c ****   */
 856:../StdPeripheralDriver/src/stm32f10x_can.c **** uint8_t CAN_Sleep(CAN_TypeDef* CANx)
 857:../StdPeripheralDriver/src/stm32f10x_can.c **** {
 19946              		.loc 1 857 0
 19947              		.cfi_startproc
 19948              		@ args = 0, pretend = 0, frame = 16
 19949              		@ frame_needed = 1, uses_anonymous_args = 0
 19950              		@ link register save eliminated.
 19951 0000 80B4     		push	{r7}
 19952              	.LCFI42:
 19953              		.cfi_def_cfa_offset 4
 19954 0002 85B0     		sub	sp, sp, #20
 19955              	.LCFI43:
 19956              		.cfi_def_cfa_offset 24
 19957 0004 00AF     		add	r7, sp, #0
 19958              		.cfi_offset 7, -4
 19959              	.LCFI44:
 19960              		.cfi_def_cfa_register 7
 19961 0006 7860     		str	r0, [r7, #4]
 858:../StdPeripheralDriver/src/stm32f10x_can.c ****   uint8_t sleepstatus = CAN_Sleep_Failed;
 19962              		.loc 1 858 0
 19963 0008 4FF00003 		mov	r3, #0
 19964 000c FB73     		strb	r3, [r7, #15]
 859:../StdPeripheralDriver/src/stm32f10x_can.c ****   
 860:../StdPeripheralDriver/src/stm32f10x_can.c ****   /* Check the parameters */
 861:../StdPeripheralDriver/src/stm32f10x_can.c ****   assert_param(IS_CAN_ALL_PERIPH(CANx));
 862:../StdPeripheralDriver/src/stm32f10x_can.c ****     
 863:../StdPeripheralDriver/src/stm32f10x_can.c ****   /* Request Sleep mode */
 864:../StdPeripheralDriver/src/stm32f10x_can.c ****    CANx->MCR = (((CANx->MCR) & (uint32_t)(~(uint32_t)CAN_MCR_INRQ)) | CAN_MCR_SLEEP);
 19965              		.loc 1 864 0
 19966 000e 7B68     		ldr	r3, [r7, #4]
 19967 0010 1B68     		ldr	r3, [r3, #0]
 19968 0012 23F00303 		bic	r3, r3, #3
 19969 0016 43F00202 		orr	r2, r3, #2
 19970 001a 7B68     		ldr	r3, [r7, #4]
 19971 001c 1A60     		str	r2, [r3, #0]
 865:../StdPeripheralDriver/src/stm32f10x_can.c ****    
 866:../StdPeripheralDriver/src/stm32f10x_can.c ****   /* Sleep mode status */
 867:../StdPeripheralDriver/src/stm32f10x_can.c ****   if ((CANx->MSR & (CAN_MSR_SLAK|CAN_MSR_INAK)) == CAN_MSR_SLAK)
 19972              		.loc 1 867 0
 19973 001e 7B68     		ldr	r3, [r7, #4]
 19974 0020 5B68     		ldr	r3, [r3, #4]
 19975 0022 03F00303 		and	r3, r3, #3
 19976 0026 022B     		cmp	r3, #2
 19977 0028 02D1     		bne	.L112
 868:../StdPeripheralDriver/src/stm32f10x_can.c ****   {
 869:../StdPeripheralDriver/src/stm32f10x_can.c ****     /* Sleep mode not entered */
 870:../StdPeripheralDriver/src/stm32f10x_can.c ****     sleepstatus =  CAN_Sleep_Ok;
 19978              		.loc 1 870 0
 19979 002a 4FF00103 		mov	r3, #1
 19980 002e FB73     		strb	r3, [r7, #15]
 19981              	.L112:
 871:../StdPeripheralDriver/src/stm32f10x_can.c ****   }
 872:../StdPeripheralDriver/src/stm32f10x_can.c ****   /* return sleep mode status */
 873:../StdPeripheralDriver/src/stm32f10x_can.c ****    return (uint8_t)sleepstatus;
 19982              		.loc 1 873 0
 19983 0030 FB7B     		ldrb	r3, [r7, #15]	@ zero_extendqisi2
 874:../StdPeripheralDriver/src/stm32f10x_can.c **** }
 19984              		.loc 1 874 0
 19985 0032 1846     		mov	r0, r3
 19986 0034 07F11407 		add	r7, r7, #20
 19987 0038 BD46     		mov	sp, r7
 19988 003a 80BC     		pop	{r7}
 19989 003c 7047     		bx	lr
 19990              		.cfi_endproc
 19991              	.LFE43:
 19993 003e 00BF     		.section	.text.CAN_WakeUp,"ax",%progbits
 19994              		.align	2
 19995              		.global	CAN_WakeUp
 19996              		.thumb
 19997              		.thumb_func
 19999              	CAN_WakeUp:
 20000              	.LFB44:
 875:../StdPeripheralDriver/src/stm32f10x_can.c **** 
 876:../StdPeripheralDriver/src/stm32f10x_can.c **** /**
 877:../StdPeripheralDriver/src/stm32f10x_can.c ****   * @brief  Wakes the CAN up.
 878:../StdPeripheralDriver/src/stm32f10x_can.c ****   * @param  CANx:    where x can be 1 or 2 to to select the CAN peripheral.
 879:../StdPeripheralDriver/src/stm32f10x_can.c ****   * @retval status:  CAN_WakeUp_Ok if sleep mode left, CAN_WakeUp_Failed in an 
 880:../StdPeripheralDriver/src/stm32f10x_can.c ****   *                  other case.
 881:../StdPeripheralDriver/src/stm32f10x_can.c ****   */
 882:../StdPeripheralDriver/src/stm32f10x_can.c **** uint8_t CAN_WakeUp(CAN_TypeDef* CANx)
 883:../StdPeripheralDriver/src/stm32f10x_can.c **** {
 20001              		.loc 1 883 0
 20002              		.cfi_startproc
 20003              		@ args = 0, pretend = 0, frame = 16
 20004              		@ frame_needed = 1, uses_anonymous_args = 0
 20005              		@ link register save eliminated.
 20006 0000 80B4     		push	{r7}
 20007              	.LCFI45:
 20008              		.cfi_def_cfa_offset 4
 20009 0002 85B0     		sub	sp, sp, #20
 20010              	.LCFI46:
 20011              		.cfi_def_cfa_offset 24
 20012 0004 00AF     		add	r7, sp, #0
 20013              		.cfi_offset 7, -4
 20014              	.LCFI47:
 20015              		.cfi_def_cfa_register 7
 20016 0006 7860     		str	r0, [r7, #4]
 884:../StdPeripheralDriver/src/stm32f10x_can.c ****   uint32_t wait_slak = SLAK_TIMEOUT;
 20017              		.loc 1 884 0
 20018 0008 4FF6FF73 		movw	r3, #65535
 20019 000c FB60     		str	r3, [r7, #12]
 885:../StdPeripheralDriver/src/stm32f10x_can.c ****   uint8_t wakeupstatus = CAN_WakeUp_Failed;
 20020              		.loc 1 885 0
 20021 000e 4FF00003 		mov	r3, #0
 20022 0012 FB72     		strb	r3, [r7, #11]
 886:../StdPeripheralDriver/src/stm32f10x_can.c ****   
 887:../StdPeripheralDriver/src/stm32f10x_can.c ****   /* Check the parameters */
 888:../StdPeripheralDriver/src/stm32f10x_can.c ****   assert_param(IS_CAN_ALL_PERIPH(CANx));
 889:../StdPeripheralDriver/src/stm32f10x_can.c ****     
 890:../StdPeripheralDriver/src/stm32f10x_can.c ****   /* Wake up request */
 891:../StdPeripheralDriver/src/stm32f10x_can.c ****   CANx->MCR &= ~(uint32_t)CAN_MCR_SLEEP;
 20023              		.loc 1 891 0
 20024 0014 7B68     		ldr	r3, [r7, #4]
 20025 0016 1B68     		ldr	r3, [r3, #0]
 20026 0018 23F00202 		bic	r2, r3, #2
 20027 001c 7B68     		ldr	r3, [r7, #4]
 20028 001e 1A60     		str	r2, [r3, #0]
 892:../StdPeripheralDriver/src/stm32f10x_can.c ****     
 893:../StdPeripheralDriver/src/stm32f10x_can.c ****   /* Sleep mode status */
 894:../StdPeripheralDriver/src/stm32f10x_can.c ****   while(((CANx->MSR & CAN_MSR_SLAK) == CAN_MSR_SLAK)&&(wait_slak!=0x00))
 20029              		.loc 1 894 0
 20030 0020 03E0     		b	.L114
 20031              	.L116:
 895:../StdPeripheralDriver/src/stm32f10x_can.c ****   {
 896:../StdPeripheralDriver/src/stm32f10x_can.c ****    wait_slak--;
 20032              		.loc 1 896 0
 20033 0022 FB68     		ldr	r3, [r7, #12]
 20034 0024 03F1FF33 		add	r3, r3, #-1
 20035 0028 FB60     		str	r3, [r7, #12]
 20036              	.L114:
 894:../StdPeripheralDriver/src/stm32f10x_can.c ****   while(((CANx->MSR & CAN_MSR_SLAK) == CAN_MSR_SLAK)&&(wait_slak!=0x00))
 20037              		.loc 1 894 0 discriminator 1
 20038 002a 7B68     		ldr	r3, [r7, #4]
 20039 002c 5B68     		ldr	r3, [r3, #4]
 20040 002e 03F00203 		and	r3, r3, #2
 20041 0032 002B     		cmp	r3, #0
 20042 0034 02D0     		beq	.L115
 894:../StdPeripheralDriver/src/stm32f10x_can.c ****   while(((CANx->MSR & CAN_MSR_SLAK) == CAN_MSR_SLAK)&&(wait_slak!=0x00))
 20043              		.loc 1 894 0 is_stmt 0 discriminator 2
 20044 0036 FB68     		ldr	r3, [r7, #12]
 20045 0038 002B     		cmp	r3, #0
 20046 003a F2D1     		bne	.L116
 20047              	.L115:
 897:../StdPeripheralDriver/src/stm32f10x_can.c ****   }
 898:../StdPeripheralDriver/src/stm32f10x_can.c ****   if((CANx->MSR & CAN_MSR_SLAK) != CAN_MSR_SLAK)
 20048              		.loc 1 898 0 is_stmt 1
 20049 003c 7B68     		ldr	r3, [r7, #4]
 20050 003e 5B68     		ldr	r3, [r3, #4]
 20051 0040 03F00203 		and	r3, r3, #2
 20052 0044 002B     		cmp	r3, #0
 20053 0046 02D1     		bne	.L117
 899:../StdPeripheralDriver/src/stm32f10x_can.c ****   {
 900:../StdPeripheralDriver/src/stm32f10x_can.c ****    /* wake up done : Sleep mode exited */
 901:../StdPeripheralDriver/src/stm32f10x_can.c ****     wakeupstatus = CAN_WakeUp_Ok;
 20054              		.loc 1 901 0
 20055 0048 4FF00103 		mov	r3, #1
 20056 004c FB72     		strb	r3, [r7, #11]
 20057              	.L117:
 902:../StdPeripheralDriver/src/stm32f10x_can.c ****   }
 903:../StdPeripheralDriver/src/stm32f10x_can.c ****   /* return wakeup status */
 904:../StdPeripheralDriver/src/stm32f10x_can.c ****   return (uint8_t)wakeupstatus;
 20058              		.loc 1 904 0
 20059 004e FB7A     		ldrb	r3, [r7, #11]	@ zero_extendqisi2
 905:../StdPeripheralDriver/src/stm32f10x_can.c **** }
 20060              		.loc 1 905 0
 20061 0050 1846     		mov	r0, r3
 20062 0052 07F11407 		add	r7, r7, #20
 20063 0056 BD46     		mov	sp, r7
 20064 0058 80BC     		pop	{r7}
 20065 005a 7047     		bx	lr
 20066              		.cfi_endproc
 20067              	.LFE44:
 20069              		.section	.text.CAN_GetLastErrorCode,"ax",%progbits
 20070              		.align	2
 20071              		.global	CAN_GetLastErrorCode
 20072              		.thumb
 20073              		.thumb_func
 20075              	CAN_GetLastErrorCode:
 20076              	.LFB45:
 906:../StdPeripheralDriver/src/stm32f10x_can.c **** 
 907:../StdPeripheralDriver/src/stm32f10x_can.c **** 
 908:../StdPeripheralDriver/src/stm32f10x_can.c **** /**
 909:../StdPeripheralDriver/src/stm32f10x_can.c ****   * @brief  Returns the CANx's last error code (LEC).
 910:../StdPeripheralDriver/src/stm32f10x_can.c ****   * @param  CANx:          where x can be 1 or 2 to to select the CAN peripheral.  
 911:../StdPeripheralDriver/src/stm32f10x_can.c ****   * @retval CAN_ErrorCode: specifies the Error code : 
 912:../StdPeripheralDriver/src/stm32f10x_can.c ****   *                        - CAN_ERRORCODE_NoErr            No Error  
 913:../StdPeripheralDriver/src/stm32f10x_can.c ****   *                        - CAN_ERRORCODE_StuffErr         Stuff Error
 914:../StdPeripheralDriver/src/stm32f10x_can.c ****   *                        - CAN_ERRORCODE_FormErr          Form Error
 915:../StdPeripheralDriver/src/stm32f10x_can.c ****   *                        - CAN_ERRORCODE_ACKErr           Acknowledgment Error
 916:../StdPeripheralDriver/src/stm32f10x_can.c ****   *                        - CAN_ERRORCODE_BitRecessiveErr  Bit Recessive Error
 917:../StdPeripheralDriver/src/stm32f10x_can.c ****   *                        - CAN_ERRORCODE_BitDominantErr   Bit Dominant Error
 918:../StdPeripheralDriver/src/stm32f10x_can.c ****   *                        - CAN_ERRORCODE_CRCErr           CRC Error
 919:../StdPeripheralDriver/src/stm32f10x_can.c ****   *                        - CAN_ERRORCODE_SoftwareSetErr   Software Set Error  
 920:../StdPeripheralDriver/src/stm32f10x_can.c ****   */
 921:../StdPeripheralDriver/src/stm32f10x_can.c ****  
 922:../StdPeripheralDriver/src/stm32f10x_can.c **** uint8_t CAN_GetLastErrorCode(CAN_TypeDef* CANx)
 923:../StdPeripheralDriver/src/stm32f10x_can.c **** {
 20077              		.loc 1 923 0
 20078              		.cfi_startproc
 20079              		@ args = 0, pretend = 0, frame = 16
 20080              		@ frame_needed = 1, uses_anonymous_args = 0
 20081              		@ link register save eliminated.
 20082 0000 80B4     		push	{r7}
 20083              	.LCFI48:
 20084              		.cfi_def_cfa_offset 4
 20085 0002 85B0     		sub	sp, sp, #20
 20086              	.LCFI49:
 20087              		.cfi_def_cfa_offset 24
 20088 0004 00AF     		add	r7, sp, #0
 20089              		.cfi_offset 7, -4
 20090              	.LCFI50:
 20091              		.cfi_def_cfa_register 7
 20092 0006 7860     		str	r0, [r7, #4]
 924:../StdPeripheralDriver/src/stm32f10x_can.c ****   uint8_t errorcode=0;
 20093              		.loc 1 924 0
 20094 0008 4FF00003 		mov	r3, #0
 20095 000c FB73     		strb	r3, [r7, #15]
 925:../StdPeripheralDriver/src/stm32f10x_can.c ****   
 926:../StdPeripheralDriver/src/stm32f10x_can.c ****   /* Check the parameters */
 927:../StdPeripheralDriver/src/stm32f10x_can.c ****   assert_param(IS_CAN_ALL_PERIPH(CANx));
 928:../StdPeripheralDriver/src/stm32f10x_can.c ****   
 929:../StdPeripheralDriver/src/stm32f10x_can.c ****   /* Get the error code*/
 930:../StdPeripheralDriver/src/stm32f10x_can.c ****   errorcode = (((uint8_t)CANx->ESR) & (uint8_t)CAN_ESR_LEC);
 20096              		.loc 1 930 0
 20097 000e 7B68     		ldr	r3, [r7, #4]
 20098 0010 9B69     		ldr	r3, [r3, #24]
 20099 0012 DBB2     		uxtb	r3, r3
 20100 0014 03F07003 		and	r3, r3, #112
 20101 0018 FB73     		strb	r3, [r7, #15]
 931:../StdPeripheralDriver/src/stm32f10x_can.c ****   
 932:../StdPeripheralDriver/src/stm32f10x_can.c ****   /* Return the error code*/
 933:../StdPeripheralDriver/src/stm32f10x_can.c ****   return errorcode;
 20102              		.loc 1 933 0
 20103 001a FB7B     		ldrb	r3, [r7, #15]	@ zero_extendqisi2
 934:../StdPeripheralDriver/src/stm32f10x_can.c **** }
 20104              		.loc 1 934 0
 20105 001c 1846     		mov	r0, r3
 20106 001e 07F11407 		add	r7, r7, #20
 20107 0022 BD46     		mov	sp, r7
 20108 0024 80BC     		pop	{r7}
 20109 0026 7047     		bx	lr
 20110              		.cfi_endproc
 20111              	.LFE45:
 20113              		.section	.text.CAN_GetReceiveErrorCounter,"ax",%progbits
 20114              		.align	2
 20115              		.global	CAN_GetReceiveErrorCounter
 20116              		.thumb
 20117              		.thumb_func
 20119              	CAN_GetReceiveErrorCounter:
 20120              	.LFB46:
 935:../StdPeripheralDriver/src/stm32f10x_can.c **** /**
 936:../StdPeripheralDriver/src/stm32f10x_can.c ****   * @brief  Returns the CANx Receive Error Counter (REC).
 937:../StdPeripheralDriver/src/stm32f10x_can.c ****   * @note   In case of an error during reception, this counter is incremented 
 938:../StdPeripheralDriver/src/stm32f10x_can.c ****   *         by 1 or by 8 depending on the error condition as defined by the CAN 
 939:../StdPeripheralDriver/src/stm32f10x_can.c ****   *         standard. After every successful reception, the counter is 
 940:../StdPeripheralDriver/src/stm32f10x_can.c ****   *         decremented by 1 or reset to 120 if its value was higher than 128. 
 941:../StdPeripheralDriver/src/stm32f10x_can.c ****   *         When the counter value exceeds 127, the CAN controller enters the 
 942:../StdPeripheralDriver/src/stm32f10x_can.c ****   *         error passive state.  
 943:../StdPeripheralDriver/src/stm32f10x_can.c ****   * @param  CANx: where x can be 1 or 2 to to select the CAN peripheral.  
 944:../StdPeripheralDriver/src/stm32f10x_can.c ****   * @retval CAN Receive Error Counter. 
 945:../StdPeripheralDriver/src/stm32f10x_can.c ****   */
 946:../StdPeripheralDriver/src/stm32f10x_can.c **** uint8_t CAN_GetReceiveErrorCounter(CAN_TypeDef* CANx)
 947:../StdPeripheralDriver/src/stm32f10x_can.c **** {
 20121              		.loc 1 947 0
 20122              		.cfi_startproc
 20123              		@ args = 0, pretend = 0, frame = 16
 20124              		@ frame_needed = 1, uses_anonymous_args = 0
 20125              		@ link register save eliminated.
 20126 0000 80B4     		push	{r7}
 20127              	.LCFI51:
 20128              		.cfi_def_cfa_offset 4
 20129 0002 85B0     		sub	sp, sp, #20
 20130              	.LCFI52:
 20131              		.cfi_def_cfa_offset 24
 20132 0004 00AF     		add	r7, sp, #0
 20133              		.cfi_offset 7, -4
 20134              	.LCFI53:
 20135              		.cfi_def_cfa_register 7
 20136 0006 7860     		str	r0, [r7, #4]
 948:../StdPeripheralDriver/src/stm32f10x_can.c ****   uint8_t counter=0;
 20137              		.loc 1 948 0
 20138 0008 4FF00003 		mov	r3, #0
 20139 000c FB73     		strb	r3, [r7, #15]
 949:../StdPeripheralDriver/src/stm32f10x_can.c ****   
 950:../StdPeripheralDriver/src/stm32f10x_can.c ****   /* Check the parameters */
 951:../StdPeripheralDriver/src/stm32f10x_can.c ****   assert_param(IS_CAN_ALL_PERIPH(CANx));
 952:../StdPeripheralDriver/src/stm32f10x_can.c ****   
 953:../StdPeripheralDriver/src/stm32f10x_can.c ****   /* Get the Receive Error Counter*/
 954:../StdPeripheralDriver/src/stm32f10x_can.c ****   counter = (uint8_t)((CANx->ESR & CAN_ESR_REC)>> 24);
 20140              		.loc 1 954 0
 20141 000e 7B68     		ldr	r3, [r7, #4]
 20142 0010 9B69     		ldr	r3, [r3, #24]
 20143 0012 4FEA1363 		lsr	r3, r3, #24
 20144 0016 FB73     		strb	r3, [r7, #15]
 955:../StdPeripheralDriver/src/stm32f10x_can.c ****   
 956:../StdPeripheralDriver/src/stm32f10x_can.c ****   /* Return the Receive Error Counter*/
 957:../StdPeripheralDriver/src/stm32f10x_can.c ****   return counter;
 20145              		.loc 1 957 0
 20146 0018 FB7B     		ldrb	r3, [r7, #15]	@ zero_extendqisi2
 958:../StdPeripheralDriver/src/stm32f10x_can.c **** }
 20147              		.loc 1 958 0
 20148 001a 1846     		mov	r0, r3
 20149 001c 07F11407 		add	r7, r7, #20
 20150 0020 BD46     		mov	sp, r7
 20151 0022 80BC     		pop	{r7}
 20152 0024 7047     		bx	lr
 20153              		.cfi_endproc
 20154              	.LFE46:
 20156 0026 00BF     		.section	.text.CAN_GetLSBTransmitErrorCounter,"ax",%progbits
 20157              		.align	2
 20158              		.global	CAN_GetLSBTransmitErrorCounter
 20159              		.thumb
 20160              		.thumb_func
 20162              	CAN_GetLSBTransmitErrorCounter:
 20163              	.LFB47:
 959:../StdPeripheralDriver/src/stm32f10x_can.c **** 
 960:../StdPeripheralDriver/src/stm32f10x_can.c **** 
 961:../StdPeripheralDriver/src/stm32f10x_can.c **** /**
 962:../StdPeripheralDriver/src/stm32f10x_can.c ****   * @brief  Returns the LSB of the 9-bit CANx Transmit Error Counter(TEC).
 963:../StdPeripheralDriver/src/stm32f10x_can.c ****   * @param  CANx:   where x can be 1 or 2 to to select the CAN peripheral.  
 964:../StdPeripheralDriver/src/stm32f10x_can.c ****   * @retval LSB of the 9-bit CAN Transmit Error Counter. 
 965:../StdPeripheralDriver/src/stm32f10x_can.c ****   */
 966:../StdPeripheralDriver/src/stm32f10x_can.c **** uint8_t CAN_GetLSBTransmitErrorCounter(CAN_TypeDef* CANx)
 967:../StdPeripheralDriver/src/stm32f10x_can.c **** {
 20164              		.loc 1 967 0
 20165              		.cfi_startproc
 20166              		@ args = 0, pretend = 0, frame = 16
 20167              		@ frame_needed = 1, uses_anonymous_args = 0
 20168              		@ link register save eliminated.
 20169 0000 80B4     		push	{r7}
 20170              	.LCFI54:
 20171              		.cfi_def_cfa_offset 4
 20172 0002 85B0     		sub	sp, sp, #20
 20173              	.LCFI55:
 20174              		.cfi_def_cfa_offset 24
 20175 0004 00AF     		add	r7, sp, #0
 20176              		.cfi_offset 7, -4
 20177              	.LCFI56:
 20178              		.cfi_def_cfa_register 7
 20179 0006 7860     		str	r0, [r7, #4]
 968:../StdPeripheralDriver/src/stm32f10x_can.c ****   uint8_t counter=0;
 20180              		.loc 1 968 0
 20181 0008 4FF00003 		mov	r3, #0
 20182 000c FB73     		strb	r3, [r7, #15]
 969:../StdPeripheralDriver/src/stm32f10x_can.c ****   
 970:../StdPeripheralDriver/src/stm32f10x_can.c ****   /* Check the parameters */
 971:../StdPeripheralDriver/src/stm32f10x_can.c ****   assert_param(IS_CAN_ALL_PERIPH(CANx));
 972:../StdPeripheralDriver/src/stm32f10x_can.c ****   
 973:../StdPeripheralDriver/src/stm32f10x_can.c ****   /* Get the LSB of the 9-bit CANx Transmit Error Counter(TEC) */
 974:../StdPeripheralDriver/src/stm32f10x_can.c ****   counter = (uint8_t)((CANx->ESR & CAN_ESR_TEC)>> 16);
 20183              		.loc 1 974 0
 20184 000e 7B68     		ldr	r3, [r7, #4]
 20185 0010 9B69     		ldr	r3, [r3, #24]
 20186 0012 03F47F03 		and	r3, r3, #16711680
 20187 0016 4FEA1343 		lsr	r3, r3, #16
 20188 001a FB73     		strb	r3, [r7, #15]
 975:../StdPeripheralDriver/src/stm32f10x_can.c ****   
 976:../StdPeripheralDriver/src/stm32f10x_can.c ****   /* Return the LSB of the 9-bit CANx Transmit Error Counter(TEC) */
 977:../StdPeripheralDriver/src/stm32f10x_can.c ****   return counter;
 20189              		.loc 1 977 0
 20190 001c FB7B     		ldrb	r3, [r7, #15]	@ zero_extendqisi2
 978:../StdPeripheralDriver/src/stm32f10x_can.c **** }
 20191              		.loc 1 978 0
 20192 001e 1846     		mov	r0, r3
 20193 0020 07F11407 		add	r7, r7, #20
 20194 0024 BD46     		mov	sp, r7
 20195 0026 80BC     		pop	{r7}
 20196 0028 7047     		bx	lr
 20197              		.cfi_endproc
 20198              	.LFE47:
 20200 002a 00BF     		.section	.text.CAN_ITConfig,"ax",%progbits
 20201              		.align	2
 20202              		.global	CAN_ITConfig
 20203              		.thumb
 20204              		.thumb_func
 20206              	CAN_ITConfig:
 20207              	.LFB48:
 979:../StdPeripheralDriver/src/stm32f10x_can.c **** 
 980:../StdPeripheralDriver/src/stm32f10x_can.c **** 
 981:../StdPeripheralDriver/src/stm32f10x_can.c **** /**
 982:../StdPeripheralDriver/src/stm32f10x_can.c ****   * @brief  Enables or disables the specified CANx interrupts.
 983:../StdPeripheralDriver/src/stm32f10x_can.c ****   * @param  CANx:   where x can be 1 or 2 to to select the CAN peripheral.
 984:../StdPeripheralDriver/src/stm32f10x_can.c ****   * @param  CAN_IT: specifies the CAN interrupt sources to be enabled or disabled.
 985:../StdPeripheralDriver/src/stm32f10x_can.c ****   *                 This parameter can be: 
 986:../StdPeripheralDriver/src/stm32f10x_can.c ****   *                 - CAN_IT_TME, 
 987:../StdPeripheralDriver/src/stm32f10x_can.c ****   *                 - CAN_IT_FMP0, 
 988:../StdPeripheralDriver/src/stm32f10x_can.c ****   *                 - CAN_IT_FF0,
 989:../StdPeripheralDriver/src/stm32f10x_can.c ****   *                 - CAN_IT_FOV0, 
 990:../StdPeripheralDriver/src/stm32f10x_can.c ****   *                 - CAN_IT_FMP1, 
 991:../StdPeripheralDriver/src/stm32f10x_can.c ****   *                 - CAN_IT_FF1,
 992:../StdPeripheralDriver/src/stm32f10x_can.c ****   *                 - CAN_IT_FOV1, 
 993:../StdPeripheralDriver/src/stm32f10x_can.c ****   *                 - CAN_IT_EWG, 
 994:../StdPeripheralDriver/src/stm32f10x_can.c ****   *                 - CAN_IT_EPV,
 995:../StdPeripheralDriver/src/stm32f10x_can.c ****   *                 - CAN_IT_LEC, 
 996:../StdPeripheralDriver/src/stm32f10x_can.c ****   *                 - CAN_IT_ERR, 
 997:../StdPeripheralDriver/src/stm32f10x_can.c ****   *                 - CAN_IT_WKU or 
 998:../StdPeripheralDriver/src/stm32f10x_can.c ****   *                 - CAN_IT_SLK.
 999:../StdPeripheralDriver/src/stm32f10x_can.c ****   * @param  NewState: new state of the CAN interrupts.
1000:../StdPeripheralDriver/src/stm32f10x_can.c ****   *                   This parameter can be: ENABLE or DISABLE.
1001:../StdPeripheralDriver/src/stm32f10x_can.c ****   * @retval None.
1002:../StdPeripheralDriver/src/stm32f10x_can.c ****   */
1003:../StdPeripheralDriver/src/stm32f10x_can.c **** void CAN_ITConfig(CAN_TypeDef* CANx, uint32_t CAN_IT, FunctionalState NewState)
1004:../StdPeripheralDriver/src/stm32f10x_can.c **** {
 20208              		.loc 1 1004 0
 20209              		.cfi_startproc
 20210              		@ args = 0, pretend = 0, frame = 16
 20211              		@ frame_needed = 1, uses_anonymous_args = 0
 20212              		@ link register save eliminated.
 20213 0000 80B4     		push	{r7}
 20214              	.LCFI57:
 20215              		.cfi_def_cfa_offset 4
 20216 0002 85B0     		sub	sp, sp, #20
 20217              	.LCFI58:
 20218              		.cfi_def_cfa_offset 24
 20219 0004 00AF     		add	r7, sp, #0
 20220              		.cfi_offset 7, -4
 20221              	.LCFI59:
 20222              		.cfi_def_cfa_register 7
 20223 0006 F860     		str	r0, [r7, #12]
 20224 0008 B960     		str	r1, [r7, #8]
 20225 000a 1346     		mov	r3, r2
 20226 000c FB71     		strb	r3, [r7, #7]
1005:../StdPeripheralDriver/src/stm32f10x_can.c ****   /* Check the parameters */
1006:../StdPeripheralDriver/src/stm32f10x_can.c ****   assert_param(IS_CAN_ALL_PERIPH(CANx));
1007:../StdPeripheralDriver/src/stm32f10x_can.c ****   assert_param(IS_CAN_IT(CAN_IT));
1008:../StdPeripheralDriver/src/stm32f10x_can.c ****   assert_param(IS_FUNCTIONAL_STATE(NewState));
1009:../StdPeripheralDriver/src/stm32f10x_can.c **** 
1010:../StdPeripheralDriver/src/stm32f10x_can.c ****   if (NewState != DISABLE)
 20227              		.loc 1 1010 0
 20228 000e FB79     		ldrb	r3, [r7, #7]	@ zero_extendqisi2
 20229 0010 002B     		cmp	r3, #0
 20230 0012 06D0     		beq	.L122
1011:../StdPeripheralDriver/src/stm32f10x_can.c ****   {
1012:../StdPeripheralDriver/src/stm32f10x_can.c ****     /* Enable the selected CANx interrupt */
1013:../StdPeripheralDriver/src/stm32f10x_can.c ****     CANx->IER |= CAN_IT;
 20231              		.loc 1 1013 0
 20232 0014 FB68     		ldr	r3, [r7, #12]
 20233 0016 5A69     		ldr	r2, [r3, #20]
 20234 0018 BB68     		ldr	r3, [r7, #8]
 20235 001a 1A43     		orrs	r2, r2, r3
 20236 001c FB68     		ldr	r3, [r7, #12]
 20237 001e 5A61     		str	r2, [r3, #20]
 20238 0020 07E0     		b	.L121
 20239              	.L122:
1014:../StdPeripheralDriver/src/stm32f10x_can.c ****   }
1015:../StdPeripheralDriver/src/stm32f10x_can.c ****   else
1016:../StdPeripheralDriver/src/stm32f10x_can.c ****   {
1017:../StdPeripheralDriver/src/stm32f10x_can.c ****     /* Disable the selected CANx interrupt */
1018:../StdPeripheralDriver/src/stm32f10x_can.c ****     CANx->IER &= ~CAN_IT;
 20240              		.loc 1 1018 0
 20241 0022 FB68     		ldr	r3, [r7, #12]
 20242 0024 5A69     		ldr	r2, [r3, #20]
 20243 0026 BB68     		ldr	r3, [r7, #8]
 20244 0028 6FEA0303 		mvn	r3, r3
 20245 002c 1A40     		ands	r2, r2, r3
 20246 002e FB68     		ldr	r3, [r7, #12]
 20247 0030 5A61     		str	r2, [r3, #20]
 20248              	.L121:
1019:../StdPeripheralDriver/src/stm32f10x_can.c ****   }
1020:../StdPeripheralDriver/src/stm32f10x_can.c **** }
 20249              		.loc 1 1020 0
 20250 0032 07F11407 		add	r7, r7, #20
 20251 0036 BD46     		mov	sp, r7
 20252 0038 80BC     		pop	{r7}
 20253 003a 7047     		bx	lr
 20254              		.cfi_endproc
 20255              	.LFE48:
 20257              		.section	.text.CAN_GetFlagStatus,"ax",%progbits
 20258              		.align	2
 20259              		.global	CAN_GetFlagStatus
 20260              		.thumb
 20261              		.thumb_func
 20263              	CAN_GetFlagStatus:
 20264              	.LFB49:
1021:../StdPeripheralDriver/src/stm32f10x_can.c **** /**
1022:../StdPeripheralDriver/src/stm32f10x_can.c ****   * @brief  Checks whether the specified CAN flag is set or not.
1023:../StdPeripheralDriver/src/stm32f10x_can.c ****   * @param  CANx:     where x can be 1 or 2 to to select the CAN peripheral.
1024:../StdPeripheralDriver/src/stm32f10x_can.c ****   * @param  CAN_FLAG: specifies the flag to check.
1025:../StdPeripheralDriver/src/stm32f10x_can.c ****   *                   This parameter can be one of the following flags: 
1026:../StdPeripheralDriver/src/stm32f10x_can.c ****   *                  - CAN_FLAG_EWG
1027:../StdPeripheralDriver/src/stm32f10x_can.c ****   *                  - CAN_FLAG_EPV 
1028:../StdPeripheralDriver/src/stm32f10x_can.c ****   *                  - CAN_FLAG_BOF
1029:../StdPeripheralDriver/src/stm32f10x_can.c ****   *                  - CAN_FLAG_RQCP0
1030:../StdPeripheralDriver/src/stm32f10x_can.c ****   *                  - CAN_FLAG_RQCP1
1031:../StdPeripheralDriver/src/stm32f10x_can.c ****   *                  - CAN_FLAG_RQCP2
1032:../StdPeripheralDriver/src/stm32f10x_can.c ****   *                  - CAN_FLAG_FMP1   
1033:../StdPeripheralDriver/src/stm32f10x_can.c ****   *                  - CAN_FLAG_FF1       
1034:../StdPeripheralDriver/src/stm32f10x_can.c ****   *                  - CAN_FLAG_FOV1   
1035:../StdPeripheralDriver/src/stm32f10x_can.c ****   *                  - CAN_FLAG_FMP0   
1036:../StdPeripheralDriver/src/stm32f10x_can.c ****   *                  - CAN_FLAG_FF0       
1037:../StdPeripheralDriver/src/stm32f10x_can.c ****   *                  - CAN_FLAG_FOV0   
1038:../StdPeripheralDriver/src/stm32f10x_can.c ****   *                  - CAN_FLAG_WKU 
1039:../StdPeripheralDriver/src/stm32f10x_can.c ****   *                  - CAN_FLAG_SLAK  
1040:../StdPeripheralDriver/src/stm32f10x_can.c ****   *                  - CAN_FLAG_LEC       
1041:../StdPeripheralDriver/src/stm32f10x_can.c ****   * @retval The new state of CAN_FLAG (SET or RESET).
1042:../StdPeripheralDriver/src/stm32f10x_can.c ****   */
1043:../StdPeripheralDriver/src/stm32f10x_can.c **** FlagStatus CAN_GetFlagStatus(CAN_TypeDef* CANx, uint32_t CAN_FLAG)
1044:../StdPeripheralDriver/src/stm32f10x_can.c **** {
 20265              		.loc 1 1044 0
 20266              		.cfi_startproc
 20267              		@ args = 0, pretend = 0, frame = 16
 20268              		@ frame_needed = 1, uses_anonymous_args = 0
 20269              		@ link register save eliminated.
 20270 0000 80B4     		push	{r7}
 20271              	.LCFI60:
 20272              		.cfi_def_cfa_offset 4
 20273 0002 85B0     		sub	sp, sp, #20
 20274              	.LCFI61:
 20275              		.cfi_def_cfa_offset 24
 20276 0004 00AF     		add	r7, sp, #0
 20277              		.cfi_offset 7, -4
 20278              	.LCFI62:
 20279              		.cfi_def_cfa_register 7
 20280 0006 7860     		str	r0, [r7, #4]
 20281 0008 3960     		str	r1, [r7, #0]
1045:../StdPeripheralDriver/src/stm32f10x_can.c ****   FlagStatus bitstatus = RESET;
 20282              		.loc 1 1045 0
 20283 000a 4FF00003 		mov	r3, #0
 20284 000e FB73     		strb	r3, [r7, #15]
1046:../StdPeripheralDriver/src/stm32f10x_can.c ****   
1047:../StdPeripheralDriver/src/stm32f10x_can.c ****   /* Check the parameters */
1048:../StdPeripheralDriver/src/stm32f10x_can.c ****   assert_param(IS_CAN_ALL_PERIPH(CANx));
1049:../StdPeripheralDriver/src/stm32f10x_can.c ****   assert_param(IS_CAN_GET_FLAG(CAN_FLAG));
1050:../StdPeripheralDriver/src/stm32f10x_can.c ****   
1051:../StdPeripheralDriver/src/stm32f10x_can.c **** 
1052:../StdPeripheralDriver/src/stm32f10x_can.c ****   if((CAN_FLAG & CAN_FLAGS_ESR) != (uint32_t)RESET)
 20285              		.loc 1 1052 0
 20286 0010 3B68     		ldr	r3, [r7, #0]
 20287 0012 03F47003 		and	r3, r3, #15728640
 20288 0016 002B     		cmp	r3, #0
 20289 0018 12D0     		beq	.L125
1053:../StdPeripheralDriver/src/stm32f10x_can.c ****   { 
1054:../StdPeripheralDriver/src/stm32f10x_can.c ****     /* Check the status of the specified CAN flag */
1055:../StdPeripheralDriver/src/stm32f10x_can.c ****     if ((CANx->ESR & (CAN_FLAG & 0x000FFFFF)) != (uint32_t)RESET)
 20290              		.loc 1 1055 0
 20291 001a 7B68     		ldr	r3, [r7, #4]
 20292 001c 9A69     		ldr	r2, [r3, #24]
 20293 001e 3B68     		ldr	r3, [r7, #0]
 20294 0020 02EA0303 		and	r3, r2, r3
 20295 0024 23F07F43 		bic	r3, r3, #-16777216
 20296 0028 23F47003 		bic	r3, r3, #15728640
 20297 002c 002B     		cmp	r3, #0
 20298 002e 03D0     		beq	.L126
1056:../StdPeripheralDriver/src/stm32f10x_can.c ****     { 
1057:../StdPeripheralDriver/src/stm32f10x_can.c ****       /* CAN_FLAG is set */
1058:../StdPeripheralDriver/src/stm32f10x_can.c ****       bitstatus = SET;
 20299              		.loc 1 1058 0
 20300 0030 4FF00103 		mov	r3, #1
 20301 0034 FB73     		strb	r3, [r7, #15]
 20302 0036 5DE0     		b	.L127
 20303              	.L126:
1059:../StdPeripheralDriver/src/stm32f10x_can.c ****     }
1060:../StdPeripheralDriver/src/stm32f10x_can.c ****     else
1061:../StdPeripheralDriver/src/stm32f10x_can.c ****     { 
1062:../StdPeripheralDriver/src/stm32f10x_can.c ****       /* CAN_FLAG is reset */
1063:../StdPeripheralDriver/src/stm32f10x_can.c ****       bitstatus = RESET;
 20304              		.loc 1 1063 0
 20305 0038 4FF00003 		mov	r3, #0
 20306 003c FB73     		strb	r3, [r7, #15]
 20307 003e 59E0     		b	.L127
 20308              	.L125:
1064:../StdPeripheralDriver/src/stm32f10x_can.c ****     }
1065:../StdPeripheralDriver/src/stm32f10x_can.c ****   }
1066:../StdPeripheralDriver/src/stm32f10x_can.c ****   else if((CAN_FLAG & CAN_FLAGS_MSR) != (uint32_t)RESET)
 20309              		.loc 1 1066 0
 20310 0040 3B68     		ldr	r3, [r7, #0]
 20311 0042 03F08073 		and	r3, r3, #16777216
 20312 0046 002B     		cmp	r3, #0
 20313 0048 12D0     		beq	.L128
1067:../StdPeripheralDriver/src/stm32f10x_can.c ****   { 
1068:../StdPeripheralDriver/src/stm32f10x_can.c ****     /* Check the status of the specified CAN flag */
1069:../StdPeripheralDriver/src/stm32f10x_can.c ****     if ((CANx->MSR & (CAN_FLAG & 0x000FFFFF)) != (uint32_t)RESET)
 20314              		.loc 1 1069 0
 20315 004a 7B68     		ldr	r3, [r7, #4]
 20316 004c 5A68     		ldr	r2, [r3, #4]
 20317 004e 3B68     		ldr	r3, [r7, #0]
 20318 0050 02EA0303 		and	r3, r2, r3
 20319 0054 23F07F43 		bic	r3, r3, #-16777216
 20320 0058 23F47003 		bic	r3, r3, #15728640
 20321 005c 002B     		cmp	r3, #0
 20322 005e 03D0     		beq	.L129
1070:../StdPeripheralDriver/src/stm32f10x_can.c ****     { 
1071:../StdPeripheralDriver/src/stm32f10x_can.c ****       /* CAN_FLAG is set */
1072:../StdPeripheralDriver/src/stm32f10x_can.c ****       bitstatus = SET;
 20323              		.loc 1 1072 0
 20324 0060 4FF00103 		mov	r3, #1
 20325 0064 FB73     		strb	r3, [r7, #15]
 20326 0066 45E0     		b	.L127
 20327              	.L129:
1073:../StdPeripheralDriver/src/stm32f10x_can.c ****     }
1074:../StdPeripheralDriver/src/stm32f10x_can.c ****     else
1075:../StdPeripheralDriver/src/stm32f10x_can.c ****     { 
1076:../StdPeripheralDriver/src/stm32f10x_can.c ****       /* CAN_FLAG is reset */
1077:../StdPeripheralDriver/src/stm32f10x_can.c ****       bitstatus = RESET;
 20328              		.loc 1 1077 0
 20329 0068 4FF00003 		mov	r3, #0
 20330 006c FB73     		strb	r3, [r7, #15]
 20331 006e 41E0     		b	.L127
 20332              	.L128:
1078:../StdPeripheralDriver/src/stm32f10x_can.c ****     }
1079:../StdPeripheralDriver/src/stm32f10x_can.c ****   }
1080:../StdPeripheralDriver/src/stm32f10x_can.c ****   else if((CAN_FLAG & CAN_FLAGS_TSR) != (uint32_t)RESET)
 20333              		.loc 1 1080 0
 20334 0070 3B68     		ldr	r3, [r7, #0]
 20335 0072 03F00063 		and	r3, r3, #134217728
 20336 0076 002B     		cmp	r3, #0
 20337 0078 12D0     		beq	.L130
1081:../StdPeripheralDriver/src/stm32f10x_can.c ****   { 
1082:../StdPeripheralDriver/src/stm32f10x_can.c ****     /* Check the status of the specified CAN flag */
1083:../StdPeripheralDriver/src/stm32f10x_can.c ****     if ((CANx->TSR & (CAN_FLAG & 0x000FFFFF)) != (uint32_t)RESET)
 20338              		.loc 1 1083 0
 20339 007a 7B68     		ldr	r3, [r7, #4]
 20340 007c 9A68     		ldr	r2, [r3, #8]
 20341 007e 3B68     		ldr	r3, [r7, #0]
 20342 0080 02EA0303 		and	r3, r2, r3
 20343 0084 23F07F43 		bic	r3, r3, #-16777216
 20344 0088 23F47003 		bic	r3, r3, #15728640
 20345 008c 002B     		cmp	r3, #0
 20346 008e 03D0     		beq	.L131
1084:../StdPeripheralDriver/src/stm32f10x_can.c ****     { 
1085:../StdPeripheralDriver/src/stm32f10x_can.c ****       /* CAN_FLAG is set */
1086:../StdPeripheralDriver/src/stm32f10x_can.c ****       bitstatus = SET;
 20347              		.loc 1 1086 0
 20348 0090 4FF00103 		mov	r3, #1
 20349 0094 FB73     		strb	r3, [r7, #15]
 20350 0096 2DE0     		b	.L127
 20351              	.L131:
1087:../StdPeripheralDriver/src/stm32f10x_can.c ****     }
1088:../StdPeripheralDriver/src/stm32f10x_can.c ****     else
1089:../StdPeripheralDriver/src/stm32f10x_can.c ****     { 
1090:../StdPeripheralDriver/src/stm32f10x_can.c ****       /* CAN_FLAG is reset */
1091:../StdPeripheralDriver/src/stm32f10x_can.c ****       bitstatus = RESET;
 20352              		.loc 1 1091 0
 20353 0098 4FF00003 		mov	r3, #0
 20354 009c FB73     		strb	r3, [r7, #15]
 20355 009e 29E0     		b	.L127
 20356              	.L130:
1092:../StdPeripheralDriver/src/stm32f10x_can.c ****     }
1093:../StdPeripheralDriver/src/stm32f10x_can.c ****   }
1094:../StdPeripheralDriver/src/stm32f10x_can.c ****   else if((CAN_FLAG & CAN_FLAGS_RF0R) != (uint32_t)RESET)
 20357              		.loc 1 1094 0
 20358 00a0 3B68     		ldr	r3, [r7, #0]
 20359 00a2 03F00073 		and	r3, r3, #33554432
 20360 00a6 002B     		cmp	r3, #0
 20361 00a8 12D0     		beq	.L132
1095:../StdPeripheralDriver/src/stm32f10x_can.c ****   { 
1096:../StdPeripheralDriver/src/stm32f10x_can.c ****     /* Check the status of the specified CAN flag */
1097:../StdPeripheralDriver/src/stm32f10x_can.c ****     if ((CANx->RF0R & (CAN_FLAG & 0x000FFFFF)) != (uint32_t)RESET)
 20362              		.loc 1 1097 0
 20363 00aa 7B68     		ldr	r3, [r7, #4]
 20364 00ac DA68     		ldr	r2, [r3, #12]
 20365 00ae 3B68     		ldr	r3, [r7, #0]
 20366 00b0 02EA0303 		and	r3, r2, r3
 20367 00b4 23F07F43 		bic	r3, r3, #-16777216
 20368 00b8 23F47003 		bic	r3, r3, #15728640
 20369 00bc 002B     		cmp	r3, #0
 20370 00be 03D0     		beq	.L133
1098:../StdPeripheralDriver/src/stm32f10x_can.c ****     { 
1099:../StdPeripheralDriver/src/stm32f10x_can.c ****       /* CAN_FLAG is set */
1100:../StdPeripheralDriver/src/stm32f10x_can.c ****       bitstatus = SET;
 20371              		.loc 1 1100 0
 20372 00c0 4FF00103 		mov	r3, #1
 20373 00c4 FB73     		strb	r3, [r7, #15]
 20374 00c6 15E0     		b	.L127
 20375              	.L133:
1101:../StdPeripheralDriver/src/stm32f10x_can.c ****     }
1102:../StdPeripheralDriver/src/stm32f10x_can.c ****     else
1103:../StdPeripheralDriver/src/stm32f10x_can.c ****     { 
1104:../StdPeripheralDriver/src/stm32f10x_can.c ****       /* CAN_FLAG is reset */
1105:../StdPeripheralDriver/src/stm32f10x_can.c ****       bitstatus = RESET;
 20376              		.loc 1 1105 0
 20377 00c8 4FF00003 		mov	r3, #0
 20378 00cc FB73     		strb	r3, [r7, #15]
 20379 00ce 11E0     		b	.L127
 20380              	.L132:
1106:../StdPeripheralDriver/src/stm32f10x_can.c ****     }
1107:../StdPeripheralDriver/src/stm32f10x_can.c ****   }
1108:../StdPeripheralDriver/src/stm32f10x_can.c ****   else /* If(CAN_FLAG & CAN_FLAGS_RF1R != (uint32_t)RESET) */
1109:../StdPeripheralDriver/src/stm32f10x_can.c ****   { 
1110:../StdPeripheralDriver/src/stm32f10x_can.c ****     /* Check the status of the specified CAN flag */
1111:../StdPeripheralDriver/src/stm32f10x_can.c ****     if ((uint32_t)(CANx->RF1R & (CAN_FLAG & 0x000FFFFF)) != (uint32_t)RESET)
 20381              		.loc 1 1111 0
 20382 00d0 7B68     		ldr	r3, [r7, #4]
 20383 00d2 1A69     		ldr	r2, [r3, #16]
 20384 00d4 3B68     		ldr	r3, [r7, #0]
 20385 00d6 02EA0303 		and	r3, r2, r3
 20386 00da 23F07F43 		bic	r3, r3, #-16777216
 20387 00de 23F47003 		bic	r3, r3, #15728640
 20388 00e2 002B     		cmp	r3, #0
 20389 00e4 03D0     		beq	.L134
1112:../StdPeripheralDriver/src/stm32f10x_can.c ****     { 
1113:../StdPeripheralDriver/src/stm32f10x_can.c ****       /* CAN_FLAG is set */
1114:../StdPeripheralDriver/src/stm32f10x_can.c ****       bitstatus = SET;
 20390              		.loc 1 1114 0
 20391 00e6 4FF00103 		mov	r3, #1
 20392 00ea FB73     		strb	r3, [r7, #15]
 20393 00ec 02E0     		b	.L127
 20394              	.L134:
1115:../StdPeripheralDriver/src/stm32f10x_can.c ****     }
1116:../StdPeripheralDriver/src/stm32f10x_can.c ****     else
1117:../StdPeripheralDriver/src/stm32f10x_can.c ****     { 
1118:../StdPeripheralDriver/src/stm32f10x_can.c ****       /* CAN_FLAG is reset */
1119:../StdPeripheralDriver/src/stm32f10x_can.c ****       bitstatus = RESET;
 20395              		.loc 1 1119 0
 20396 00ee 4FF00003 		mov	r3, #0
 20397 00f2 FB73     		strb	r3, [r7, #15]
 20398              	.L127:
1120:../StdPeripheralDriver/src/stm32f10x_can.c ****     }
1121:../StdPeripheralDriver/src/stm32f10x_can.c ****   }
1122:../StdPeripheralDriver/src/stm32f10x_can.c ****   /* Return the CAN_FLAG status */
1123:../StdPeripheralDriver/src/stm32f10x_can.c ****   return  bitstatus;
 20399              		.loc 1 1123 0
 20400 00f4 FB7B     		ldrb	r3, [r7, #15]	@ zero_extendqisi2
1124:../StdPeripheralDriver/src/stm32f10x_can.c **** }
 20401              		.loc 1 1124 0
 20402 00f6 1846     		mov	r0, r3
 20403 00f8 07F11407 		add	r7, r7, #20
 20404 00fc BD46     		mov	sp, r7
 20405 00fe 80BC     		pop	{r7}
 20406 0100 7047     		bx	lr
 20407              		.cfi_endproc
 20408              	.LFE49:
 20410 0102 00BF     		.section	.text.CAN_ClearFlag,"ax",%progbits
 20411              		.align	2
 20412              		.global	CAN_ClearFlag
 20413              		.thumb
 20414              		.thumb_func
 20416              	CAN_ClearFlag:
 20417              	.LFB50:
1125:../StdPeripheralDriver/src/stm32f10x_can.c **** 
1126:../StdPeripheralDriver/src/stm32f10x_can.c **** /**
1127:../StdPeripheralDriver/src/stm32f10x_can.c ****   * @brief  Clears the CAN's pending flags.
1128:../StdPeripheralDriver/src/stm32f10x_can.c ****   * @param  CANx:     where x can be 1 or 2 to to select the CAN peripheral.
1129:../StdPeripheralDriver/src/stm32f10x_can.c ****   * @param  CAN_FLAG: specifies the flag to clear.
1130:../StdPeripheralDriver/src/stm32f10x_can.c ****   *                   This parameter can be one of the following flags: 
1131:../StdPeripheralDriver/src/stm32f10x_can.c ****   *                    - CAN_FLAG_RQCP0
1132:../StdPeripheralDriver/src/stm32f10x_can.c ****   *                    - CAN_FLAG_RQCP1
1133:../StdPeripheralDriver/src/stm32f10x_can.c ****   *                    - CAN_FLAG_RQCP2
1134:../StdPeripheralDriver/src/stm32f10x_can.c ****   *                    - CAN_FLAG_FF1       
1135:../StdPeripheralDriver/src/stm32f10x_can.c ****   *                    - CAN_FLAG_FOV1   
1136:../StdPeripheralDriver/src/stm32f10x_can.c ****   *                    - CAN_FLAG_FF0       
1137:../StdPeripheralDriver/src/stm32f10x_can.c ****   *                    - CAN_FLAG_FOV0   
1138:../StdPeripheralDriver/src/stm32f10x_can.c ****   *                    - CAN_FLAG_WKU   
1139:../StdPeripheralDriver/src/stm32f10x_can.c ****   *                    - CAN_FLAG_SLAK    
1140:../StdPeripheralDriver/src/stm32f10x_can.c ****   *                    - CAN_FLAG_LEC       
1141:../StdPeripheralDriver/src/stm32f10x_can.c ****   * @retval None.
1142:../StdPeripheralDriver/src/stm32f10x_can.c ****   */
1143:../StdPeripheralDriver/src/stm32f10x_can.c **** void CAN_ClearFlag(CAN_TypeDef* CANx, uint32_t CAN_FLAG)
1144:../StdPeripheralDriver/src/stm32f10x_can.c **** {
 20418              		.loc 1 1144 0
 20419              		.cfi_startproc
 20420              		@ args = 0, pretend = 0, frame = 16
 20421              		@ frame_needed = 1, uses_anonymous_args = 0
 20422              		@ link register save eliminated.
 20423 0000 80B4     		push	{r7}
 20424              	.LCFI63:
 20425              		.cfi_def_cfa_offset 4
 20426 0002 85B0     		sub	sp, sp, #20
 20427              	.LCFI64:
 20428              		.cfi_def_cfa_offset 24
 20429 0004 00AF     		add	r7, sp, #0
 20430              		.cfi_offset 7, -4
 20431              	.LCFI65:
 20432              		.cfi_def_cfa_register 7
 20433 0006 7860     		str	r0, [r7, #4]
 20434 0008 3960     		str	r1, [r7, #0]
1145:../StdPeripheralDriver/src/stm32f10x_can.c ****   uint32_t flagtmp=0;
 20435              		.loc 1 1145 0
 20436 000a 4FF00003 		mov	r3, #0
 20437 000e FB60     		str	r3, [r7, #12]
1146:../StdPeripheralDriver/src/stm32f10x_can.c ****   /* Check the parameters */
1147:../StdPeripheralDriver/src/stm32f10x_can.c ****   assert_param(IS_CAN_ALL_PERIPH(CANx));
1148:../StdPeripheralDriver/src/stm32f10x_can.c ****   assert_param(IS_CAN_CLEAR_FLAG(CAN_FLAG));
1149:../StdPeripheralDriver/src/stm32f10x_can.c ****   
1150:../StdPeripheralDriver/src/stm32f10x_can.c ****   if (CAN_FLAG == CAN_FLAG_LEC) /* ESR register */
 20438              		.loc 1 1150 0
 20439 0010 3A68     		ldr	r2, [r7, #0]
 20440 0012 184B     		ldr	r3, .L141
 20441 0014 9A42     		cmp	r2, r3
 20442 0016 04D1     		bne	.L136
1151:../StdPeripheralDriver/src/stm32f10x_can.c ****   {
1152:../StdPeripheralDriver/src/stm32f10x_can.c ****     /* Clear the selected CAN flags */
1153:../StdPeripheralDriver/src/stm32f10x_can.c ****     CANx->ESR = (uint32_t)RESET;
 20443              		.loc 1 1153 0
 20444 0018 7B68     		ldr	r3, [r7, #4]
 20445 001a 4FF00002 		mov	r2, #0
 20446 001e 9A61     		str	r2, [r3, #24]
 20447 0020 23E0     		b	.L135
 20448              	.L136:
1154:../StdPeripheralDriver/src/stm32f10x_can.c ****   }
1155:../StdPeripheralDriver/src/stm32f10x_can.c ****   else /* MSR or TSR or RF0R or RF1R */
1156:../StdPeripheralDriver/src/stm32f10x_can.c ****   {
1157:../StdPeripheralDriver/src/stm32f10x_can.c ****     flagtmp = CAN_FLAG & 0x000FFFFF;
 20449              		.loc 1 1157 0
 20450 0022 3B68     		ldr	r3, [r7, #0]
 20451 0024 23F07F43 		bic	r3, r3, #-16777216
 20452 0028 23F47003 		bic	r3, r3, #15728640
 20453 002c FB60     		str	r3, [r7, #12]
1158:../StdPeripheralDriver/src/stm32f10x_can.c **** 
1159:../StdPeripheralDriver/src/stm32f10x_can.c ****     if ((CAN_FLAG & CAN_FLAGS_RF0R)!=(uint32_t)RESET)
 20454              		.loc 1 1159 0
 20455 002e 3B68     		ldr	r3, [r7, #0]
 20456 0030 03F00073 		and	r3, r3, #33554432
 20457 0034 002B     		cmp	r3, #0
 20458 0036 03D0     		beq	.L138
1160:../StdPeripheralDriver/src/stm32f10x_can.c ****     {
1161:../StdPeripheralDriver/src/stm32f10x_can.c ****       /* Receive Flags */
1162:../StdPeripheralDriver/src/stm32f10x_can.c ****       CANx->RF0R = (uint32_t)(flagtmp);
 20459              		.loc 1 1162 0
 20460 0038 7B68     		ldr	r3, [r7, #4]
 20461 003a FA68     		ldr	r2, [r7, #12]
 20462 003c DA60     		str	r2, [r3, #12]
 20463 003e 14E0     		b	.L135
 20464              	.L138:
1163:../StdPeripheralDriver/src/stm32f10x_can.c ****     }
1164:../StdPeripheralDriver/src/stm32f10x_can.c ****     else if ((CAN_FLAG & CAN_FLAGS_RF1R)!=(uint32_t)RESET)
 20465              		.loc 1 1164 0
 20466 0040 3B68     		ldr	r3, [r7, #0]
 20467 0042 03F08063 		and	r3, r3, #67108864
 20468 0046 002B     		cmp	r3, #0
 20469 0048 03D0     		beq	.L139
1165:../StdPeripheralDriver/src/stm32f10x_can.c ****     {
1166:../StdPeripheralDriver/src/stm32f10x_can.c ****       /* Receive Flags */
1167:../StdPeripheralDriver/src/stm32f10x_can.c ****       CANx->RF1R = (uint32_t)(flagtmp);
 20470              		.loc 1 1167 0
 20471 004a 7B68     		ldr	r3, [r7, #4]
 20472 004c FA68     		ldr	r2, [r7, #12]
 20473 004e 1A61     		str	r2, [r3, #16]
 20474 0050 0BE0     		b	.L135
 20475              	.L139:
1168:../StdPeripheralDriver/src/stm32f10x_can.c ****     }
1169:../StdPeripheralDriver/src/stm32f10x_can.c ****     else if ((CAN_FLAG & CAN_FLAGS_TSR)!=(uint32_t)RESET)
 20476              		.loc 1 1169 0
 20477 0052 3B68     		ldr	r3, [r7, #0]
 20478 0054 03F00063 		and	r3, r3, #134217728
 20479 0058 002B     		cmp	r3, #0
 20480 005a 03D0     		beq	.L140
1170:../StdPeripheralDriver/src/stm32f10x_can.c ****     {
1171:../StdPeripheralDriver/src/stm32f10x_can.c ****       /* Transmit Flags */
1172:../StdPeripheralDriver/src/stm32f10x_can.c ****       CANx->TSR = (uint32_t)(flagtmp);
 20481              		.loc 1 1172 0
 20482 005c 7B68     		ldr	r3, [r7, #4]
 20483 005e FA68     		ldr	r2, [r7, #12]
 20484 0060 9A60     		str	r2, [r3, #8]
 20485 0062 02E0     		b	.L135
 20486              	.L140:
1173:../StdPeripheralDriver/src/stm32f10x_can.c ****     }
1174:../StdPeripheralDriver/src/stm32f10x_can.c ****     else /* If((CAN_FLAG & CAN_FLAGS_MSR)!=(uint32_t)RESET) */
1175:../StdPeripheralDriver/src/stm32f10x_can.c ****     {
1176:../StdPeripheralDriver/src/stm32f10x_can.c ****       /* Operating mode Flags */
1177:../StdPeripheralDriver/src/stm32f10x_can.c ****       CANx->MSR = (uint32_t)(flagtmp);
 20487              		.loc 1 1177 0
 20488 0064 7B68     		ldr	r3, [r7, #4]
 20489 0066 FA68     		ldr	r2, [r7, #12]
 20490 0068 5A60     		str	r2, [r3, #4]
 20491              	.L135:
1178:../StdPeripheralDriver/src/stm32f10x_can.c ****     }
1179:../StdPeripheralDriver/src/stm32f10x_can.c ****   }
1180:../StdPeripheralDriver/src/stm32f10x_can.c **** }
 20492              		.loc 1 1180 0
 20493 006a 07F11407 		add	r7, r7, #20
 20494 006e BD46     		mov	sp, r7
 20495 0070 80BC     		pop	{r7}
 20496 0072 7047     		bx	lr
 20497              	.L142:
 20498              		.align	2
 20499              	.L141:
 20500 0074 7000F030 		.word	821035120
 20501              		.cfi_endproc
 20502              	.LFE50:
 20504              		.section	.text.CAN_GetITStatus,"ax",%progbits
 20505              		.align	2
 20506              		.global	CAN_GetITStatus
 20507              		.thumb
 20508              		.thumb_func
 20510              	CAN_GetITStatus:
 20511              	.LFB51:
1181:../StdPeripheralDriver/src/stm32f10x_can.c **** 
1182:../StdPeripheralDriver/src/stm32f10x_can.c **** /**
1183:../StdPeripheralDriver/src/stm32f10x_can.c ****   * @brief  Checks whether the specified CANx interrupt has occurred or not.
1184:../StdPeripheralDriver/src/stm32f10x_can.c ****   * @param  CANx:    where x can be 1 or 2 to to select the CAN peripheral.
1185:../StdPeripheralDriver/src/stm32f10x_can.c ****   * @param  CAN_IT:  specifies the CAN interrupt source to check.
1186:../StdPeripheralDriver/src/stm32f10x_can.c ****   *                  This parameter can be one of the following flags: 
1187:../StdPeripheralDriver/src/stm32f10x_can.c ****   *                 -  CAN_IT_TME               
1188:../StdPeripheralDriver/src/stm32f10x_can.c ****   *                 -  CAN_IT_FMP0              
1189:../StdPeripheralDriver/src/stm32f10x_can.c ****   *                 -  CAN_IT_FF0               
1190:../StdPeripheralDriver/src/stm32f10x_can.c ****   *                 -  CAN_IT_FOV0              
1191:../StdPeripheralDriver/src/stm32f10x_can.c ****   *                 -  CAN_IT_FMP1              
1192:../StdPeripheralDriver/src/stm32f10x_can.c ****   *                 -  CAN_IT_FF1               
1193:../StdPeripheralDriver/src/stm32f10x_can.c ****   *                 -  CAN_IT_FOV1              
1194:../StdPeripheralDriver/src/stm32f10x_can.c ****   *                 -  CAN_IT_WKU  
1195:../StdPeripheralDriver/src/stm32f10x_can.c ****   *                 -  CAN_IT_SLK  
1196:../StdPeripheralDriver/src/stm32f10x_can.c ****   *                 -  CAN_IT_EWG    
1197:../StdPeripheralDriver/src/stm32f10x_can.c ****   *                 -  CAN_IT_EPV    
1198:../StdPeripheralDriver/src/stm32f10x_can.c ****   *                 -  CAN_IT_BOF    
1199:../StdPeripheralDriver/src/stm32f10x_can.c ****   *                 -  CAN_IT_LEC    
1200:../StdPeripheralDriver/src/stm32f10x_can.c ****   *                 -  CAN_IT_ERR 
1201:../StdPeripheralDriver/src/stm32f10x_can.c ****   * @retval The current state of CAN_IT (SET or RESET).
1202:../StdPeripheralDriver/src/stm32f10x_can.c ****   */
1203:../StdPeripheralDriver/src/stm32f10x_can.c **** ITStatus CAN_GetITStatus(CAN_TypeDef* CANx, uint32_t CAN_IT)
1204:../StdPeripheralDriver/src/stm32f10x_can.c **** {
 20512              		.loc 1 1204 0
 20513              		.cfi_startproc
 20514              		@ args = 0, pretend = 0, frame = 16
 20515              		@ frame_needed = 1, uses_anonymous_args = 0
 20516 0000 80B5     		push	{r7, lr}
 20517              	.LCFI66:
 20518              		.cfi_def_cfa_offset 8
 20519 0002 84B0     		sub	sp, sp, #16
 20520              	.LCFI67:
 20521              		.cfi_def_cfa_offset 24
 20522 0004 00AF     		add	r7, sp, #0
 20523              		.cfi_offset 14, -4
 20524              		.cfi_offset 7, -8
 20525              	.LCFI68:
 20526              		.cfi_def_cfa_register 7
 20527 0006 7860     		str	r0, [r7, #4]
 20528 0008 3960     		str	r1, [r7, #0]
1205:../StdPeripheralDriver/src/stm32f10x_can.c ****   ITStatus itstatus = RESET;
 20529              		.loc 1 1205 0
 20530 000a 4FF00003 		mov	r3, #0
 20531 000e FB73     		strb	r3, [r7, #15]
1206:../StdPeripheralDriver/src/stm32f10x_can.c ****   /* Check the parameters */
1207:../StdPeripheralDriver/src/stm32f10x_can.c ****   assert_param(IS_CAN_ALL_PERIPH(CANx));
1208:../StdPeripheralDriver/src/stm32f10x_can.c ****   assert_param(IS_CAN_IT(CAN_IT));
1209:../StdPeripheralDriver/src/stm32f10x_can.c ****   
1210:../StdPeripheralDriver/src/stm32f10x_can.c ****   /* check the enable interrupt bit */
1211:../StdPeripheralDriver/src/stm32f10x_can.c ****  if((CANx->IER & CAN_IT) != RESET)
 20532              		.loc 1 1211 0
 20533 0010 7B68     		ldr	r3, [r7, #4]
 20534 0012 5A69     		ldr	r2, [r3, #20]
 20535 0014 3B68     		ldr	r3, [r7, #0]
 20536 0016 02EA0303 		and	r3, r2, r3
 20537 001a 002B     		cmp	r3, #0
 20538 001c 00F0C180 		beq	.L144
1212:../StdPeripheralDriver/src/stm32f10x_can.c ****  {
1213:../StdPeripheralDriver/src/stm32f10x_can.c ****    /* in case the Interrupt is enabled, .... */
1214:../StdPeripheralDriver/src/stm32f10x_can.c ****     switch (CAN_IT)
 20539              		.loc 1 1214 0
 20540 0020 3B68     		ldr	r3, [r7, #0]
 20541 0022 402B     		cmp	r3, #64
 20542 0024 68D0     		beq	.L152
 20543 0026 402B     		cmp	r3, #64
 20544 0028 0FD8     		bhi	.L160
 20545 002a 042B     		cmp	r3, #4
 20546 002c 3CD0     		beq	.L148
 20547 002e 042B     		cmp	r3, #4
 20548 0030 04D8     		bhi	.L161
 20549 0032 012B     		cmp	r3, #1
 20550 0034 25D0     		beq	.L146
 20551 0036 022B     		cmp	r3, #2
 20552 0038 2CD0     		beq	.L147
 20553 003a AEE0     		b	.L145
 20554              	.L161:
 20555 003c 102B     		cmp	r3, #16
 20556 003e 47D0     		beq	.L150
 20557 0040 202B     		cmp	r3, #32
 20558 0042 4FD0     		beq	.L151
 20559 0044 082B     		cmp	r3, #8
 20560 0046 39D0     		beq	.L149
 20561 0048 A7E0     		b	.L145
 20562              	.L160:
 20563 004a B3F5006F 		cmp	r3, #2048
 20564 004e 00F08F80 		beq	.L156
 20565 0052 B3F5006F 		cmp	r3, #2048
 20566 0056 09D8     		bhi	.L162
 20567 0058 B3F5007F 		cmp	r3, #512
 20568 005c 74D0     		beq	.L154
 20569 005e B3F5806F 		cmp	r3, #1024
 20570 0062 7BD0     		beq	.L155
 20571 0064 B3F5807F 		cmp	r3, #256
 20572 0068 64D0     		beq	.L153
 20573 006a 96E0     		b	.L145
 20574              	.L162:
 20575 006c B3F5803F 		cmp	r3, #65536
 20576 0070 4CD0     		beq	.L158
 20577 0072 B3F5003F 		cmp	r3, #131072
 20578 0076 53D0     		beq	.L159
 20579 0078 B3F5004F 		cmp	r3, #32768
 20580 007c 00F08280 		beq	.L157
 20581 0080 8BE0     		b	.L145
 20582              	.L146:
1215:../StdPeripheralDriver/src/stm32f10x_can.c ****     {
1216:../StdPeripheralDriver/src/stm32f10x_can.c ****       case CAN_IT_TME:
1217:../StdPeripheralDriver/src/stm32f10x_can.c ****                /* Check CAN_TSR_RQCPx bits */
1218:../StdPeripheralDriver/src/stm32f10x_can.c **** 	             itstatus = CheckITStatus(CANx->TSR, CAN_TSR_RQCP0|CAN_TSR_RQCP1|CAN_TSR_RQCP2);  
 20583              		.loc 1 1218 0
 20584 0082 7B68     		ldr	r3, [r7, #4]
 20585 0084 9B68     		ldr	r3, [r3, #8]
 20586 0086 1846     		mov	r0, r3
 20587 0088 4A49     		ldr	r1, .L165
 20588 008a FFF7FEFF 		bl	CheckITStatus
 20589 008e 0346     		mov	r3, r0
 20590 0090 FB73     		strb	r3, [r7, #15]
1219:../StdPeripheralDriver/src/stm32f10x_can.c **** 	      break;
 20591              		.loc 1 1219 0
 20592 0092 89E0     		b	.L164
 20593              	.L147:
1220:../StdPeripheralDriver/src/stm32f10x_can.c ****       case CAN_IT_FMP0:
1221:../StdPeripheralDriver/src/stm32f10x_can.c ****                /* Check CAN_RF0R_FMP0 bit */
1222:../StdPeripheralDriver/src/stm32f10x_can.c **** 	             itstatus = CheckITStatus(CANx->RF0R, CAN_RF0R_FMP0);  
 20594              		.loc 1 1222 0
 20595 0094 7B68     		ldr	r3, [r7, #4]
 20596 0096 DB68     		ldr	r3, [r3, #12]
 20597 0098 1846     		mov	r0, r3
 20598 009a 4FF00301 		mov	r1, #3
 20599 009e FFF7FEFF 		bl	CheckITStatus
 20600 00a2 0346     		mov	r3, r0
 20601 00a4 FB73     		strb	r3, [r7, #15]
1223:../StdPeripheralDriver/src/stm32f10x_can.c **** 	      break;
 20602              		.loc 1 1223 0
 20603 00a6 7FE0     		b	.L164
 20604              	.L148:
1224:../StdPeripheralDriver/src/stm32f10x_can.c ****       case CAN_IT_FF0:
1225:../StdPeripheralDriver/src/stm32f10x_can.c ****                /* Check CAN_RF0R_FULL0 bit */
1226:../StdPeripheralDriver/src/stm32f10x_can.c ****                itstatus = CheckITStatus(CANx->RF0R, CAN_RF0R_FULL0);  
 20605              		.loc 1 1226 0
 20606 00a8 7B68     		ldr	r3, [r7, #4]
 20607 00aa DB68     		ldr	r3, [r3, #12]
 20608 00ac 1846     		mov	r0, r3
 20609 00ae 4FF00801 		mov	r1, #8
 20610 00b2 FFF7FEFF 		bl	CheckITStatus
 20611 00b6 0346     		mov	r3, r0
 20612 00b8 FB73     		strb	r3, [r7, #15]
1227:../StdPeripheralDriver/src/stm32f10x_can.c **** 	      break;
 20613              		.loc 1 1227 0
 20614 00ba 75E0     		b	.L164
 20615              	.L149:
1228:../StdPeripheralDriver/src/stm32f10x_can.c ****       case CAN_IT_FOV0:
1229:../StdPeripheralDriver/src/stm32f10x_can.c ****                /* Check CAN_RF0R_FOVR0 bit */
1230:../StdPeripheralDriver/src/stm32f10x_can.c ****                itstatus = CheckITStatus(CANx->RF0R, CAN_RF0R_FOVR0);  
 20616              		.loc 1 1230 0
 20617 00bc 7B68     		ldr	r3, [r7, #4]
 20618 00be DB68     		ldr	r3, [r3, #12]
 20619 00c0 1846     		mov	r0, r3
 20620 00c2 4FF01001 		mov	r1, #16
 20621 00c6 FFF7FEFF 		bl	CheckITStatus
 20622 00ca 0346     		mov	r3, r0
 20623 00cc FB73     		strb	r3, [r7, #15]
1231:../StdPeripheralDriver/src/stm32f10x_can.c **** 	      break;
 20624              		.loc 1 1231 0
 20625 00ce 6BE0     		b	.L164
 20626              	.L150:
1232:../StdPeripheralDriver/src/stm32f10x_can.c ****       case CAN_IT_FMP1:
1233:../StdPeripheralDriver/src/stm32f10x_can.c ****                /* Check CAN_RF1R_FMP1 bit */
1234:../StdPeripheralDriver/src/stm32f10x_can.c ****                itstatus = CheckITStatus(CANx->RF1R, CAN_RF1R_FMP1);  
 20627              		.loc 1 1234 0
 20628 00d0 7B68     		ldr	r3, [r7, #4]
 20629 00d2 1B69     		ldr	r3, [r3, #16]
 20630 00d4 1846     		mov	r0, r3
 20631 00d6 4FF00301 		mov	r1, #3
 20632 00da FFF7FEFF 		bl	CheckITStatus
 20633 00de 0346     		mov	r3, r0
 20634 00e0 FB73     		strb	r3, [r7, #15]
1235:../StdPeripheralDriver/src/stm32f10x_can.c **** 	      break;
 20635              		.loc 1 1235 0
 20636 00e2 61E0     		b	.L164
 20637              	.L151:
1236:../StdPeripheralDriver/src/stm32f10x_can.c ****       case CAN_IT_FF1:
1237:../StdPeripheralDriver/src/stm32f10x_can.c ****                /* Check CAN_RF1R_FULL1 bit */
1238:../StdPeripheralDriver/src/stm32f10x_can.c **** 	             itstatus = CheckITStatus(CANx->RF1R, CAN_RF1R_FULL1);  
 20638              		.loc 1 1238 0
 20639 00e4 7B68     		ldr	r3, [r7, #4]
 20640 00e6 1B69     		ldr	r3, [r3, #16]
 20641 00e8 1846     		mov	r0, r3
 20642 00ea 4FF00801 		mov	r1, #8
 20643 00ee FFF7FEFF 		bl	CheckITStatus
 20644 00f2 0346     		mov	r3, r0
 20645 00f4 FB73     		strb	r3, [r7, #15]
1239:../StdPeripheralDriver/src/stm32f10x_can.c **** 	      break;
 20646              		.loc 1 1239 0
 20647 00f6 57E0     		b	.L164
 20648              	.L152:
1240:../StdPeripheralDriver/src/stm32f10x_can.c ****       case CAN_IT_FOV1:
1241:../StdPeripheralDriver/src/stm32f10x_can.c ****                /* Check CAN_RF1R_FOVR1 bit */
1242:../StdPeripheralDriver/src/stm32f10x_can.c **** 	             itstatus = CheckITStatus(CANx->RF1R, CAN_RF1R_FOVR1);  
 20649              		.loc 1 1242 0
 20650 00f8 7B68     		ldr	r3, [r7, #4]
 20651 00fa 1B69     		ldr	r3, [r3, #16]
 20652 00fc 1846     		mov	r0, r3
 20653 00fe 4FF01001 		mov	r1, #16
 20654 0102 FFF7FEFF 		bl	CheckITStatus
 20655 0106 0346     		mov	r3, r0
 20656 0108 FB73     		strb	r3, [r7, #15]
1243:../StdPeripheralDriver/src/stm32f10x_can.c **** 	      break;
 20657              		.loc 1 1243 0
 20658 010a 4DE0     		b	.L164
 20659              	.L158:
1244:../StdPeripheralDriver/src/stm32f10x_can.c ****       case CAN_IT_WKU:
1245:../StdPeripheralDriver/src/stm32f10x_can.c ****                /* Check CAN_MSR_WKUI bit */
1246:../StdPeripheralDriver/src/stm32f10x_can.c ****                itstatus = CheckITStatus(CANx->MSR, CAN_MSR_WKUI);  
 20660              		.loc 1 1246 0
 20661 010c 7B68     		ldr	r3, [r7, #4]
 20662 010e 5B68     		ldr	r3, [r3, #4]
 20663 0110 1846     		mov	r0, r3
 20664 0112 4FF00801 		mov	r1, #8
 20665 0116 FFF7FEFF 		bl	CheckITStatus
 20666 011a 0346     		mov	r3, r0
 20667 011c FB73     		strb	r3, [r7, #15]
1247:../StdPeripheralDriver/src/stm32f10x_can.c **** 	      break;
 20668              		.loc 1 1247 0
 20669 011e 43E0     		b	.L164
 20670              	.L159:
1248:../StdPeripheralDriver/src/stm32f10x_can.c ****       case CAN_IT_SLK:
1249:../StdPeripheralDriver/src/stm32f10x_can.c ****                /* Check CAN_MSR_SLAKI bit */
1250:../StdPeripheralDriver/src/stm32f10x_can.c **** 	             itstatus = CheckITStatus(CANx->MSR, CAN_MSR_SLAKI);  
 20671              		.loc 1 1250 0
 20672 0120 7B68     		ldr	r3, [r7, #4]
 20673 0122 5B68     		ldr	r3, [r3, #4]
 20674 0124 1846     		mov	r0, r3
 20675 0126 4FF01001 		mov	r1, #16
 20676 012a FFF7FEFF 		bl	CheckITStatus
 20677 012e 0346     		mov	r3, r0
 20678 0130 FB73     		strb	r3, [r7, #15]
1251:../StdPeripheralDriver/src/stm32f10x_can.c **** 	      break;
 20679              		.loc 1 1251 0
 20680 0132 39E0     		b	.L164
 20681              	.L153:
1252:../StdPeripheralDriver/src/stm32f10x_can.c ****       case CAN_IT_EWG:
1253:../StdPeripheralDriver/src/stm32f10x_can.c ****                /* Check CAN_ESR_EWGF bit */
1254:../StdPeripheralDriver/src/stm32f10x_can.c **** 	             itstatus = CheckITStatus(CANx->ESR, CAN_ESR_EWGF);  
 20682              		.loc 1 1254 0
 20683 0134 7B68     		ldr	r3, [r7, #4]
 20684 0136 9B69     		ldr	r3, [r3, #24]
 20685 0138 1846     		mov	r0, r3
 20686 013a 4FF00101 		mov	r1, #1
 20687 013e FFF7FEFF 		bl	CheckITStatus
 20688 0142 0346     		mov	r3, r0
 20689 0144 FB73     		strb	r3, [r7, #15]
1255:../StdPeripheralDriver/src/stm32f10x_can.c **** 	      break;
 20690              		.loc 1 1255 0
 20691 0146 2FE0     		b	.L164
 20692              	.L154:
1256:../StdPeripheralDriver/src/stm32f10x_can.c ****       case CAN_IT_EPV:
1257:../StdPeripheralDriver/src/stm32f10x_can.c ****                /* Check CAN_ESR_EPVF bit */
1258:../StdPeripheralDriver/src/stm32f10x_can.c **** 	             itstatus = CheckITStatus(CANx->ESR, CAN_ESR_EPVF);  
 20693              		.loc 1 1258 0
 20694 0148 7B68     		ldr	r3, [r7, #4]
 20695 014a 9B69     		ldr	r3, [r3, #24]
 20696 014c 1846     		mov	r0, r3
 20697 014e 4FF00201 		mov	r1, #2
 20698 0152 FFF7FEFF 		bl	CheckITStatus
 20699 0156 0346     		mov	r3, r0
 20700 0158 FB73     		strb	r3, [r7, #15]
1259:../StdPeripheralDriver/src/stm32f10x_can.c **** 	      break;
 20701              		.loc 1 1259 0
 20702 015a 25E0     		b	.L164
 20703              	.L155:
1260:../StdPeripheralDriver/src/stm32f10x_can.c ****       case CAN_IT_BOF:
1261:../StdPeripheralDriver/src/stm32f10x_can.c ****                /* Check CAN_ESR_BOFF bit */
1262:../StdPeripheralDriver/src/stm32f10x_can.c **** 	             itstatus = CheckITStatus(CANx->ESR, CAN_ESR_BOFF);  
 20704              		.loc 1 1262 0
 20705 015c 7B68     		ldr	r3, [r7, #4]
 20706 015e 9B69     		ldr	r3, [r3, #24]
 20707 0160 1846     		mov	r0, r3
 20708 0162 4FF00401 		mov	r1, #4
 20709 0166 FFF7FEFF 		bl	CheckITStatus
 20710 016a 0346     		mov	r3, r0
 20711 016c FB73     		strb	r3, [r7, #15]
1263:../StdPeripheralDriver/src/stm32f10x_can.c **** 	      break;
 20712              		.loc 1 1263 0
 20713 016e 1BE0     		b	.L164
 20714              	.L156:
1264:../StdPeripheralDriver/src/stm32f10x_can.c ****       case CAN_IT_LEC:
1265:../StdPeripheralDriver/src/stm32f10x_can.c ****                /* Check CAN_ESR_LEC bit */
1266:../StdPeripheralDriver/src/stm32f10x_can.c **** 	             itstatus = CheckITStatus(CANx->ESR, CAN_ESR_LEC);  
 20715              		.loc 1 1266 0
 20716 0170 7B68     		ldr	r3, [r7, #4]
 20717 0172 9B69     		ldr	r3, [r3, #24]
 20718 0174 1846     		mov	r0, r3
 20719 0176 4FF07001 		mov	r1, #112
 20720 017a FFF7FEFF 		bl	CheckITStatus
 20721 017e 0346     		mov	r3, r0
 20722 0180 FB73     		strb	r3, [r7, #15]
1267:../StdPeripheralDriver/src/stm32f10x_can.c **** 	      break;
 20723              		.loc 1 1267 0
 20724 0182 11E0     		b	.L164
 20725              	.L157:
1268:../StdPeripheralDriver/src/stm32f10x_can.c ****       case CAN_IT_ERR:
1269:../StdPeripheralDriver/src/stm32f10x_can.c ****                /* Check CAN_MSR_ERRI bit */ 
1270:../StdPeripheralDriver/src/stm32f10x_can.c ****                itstatus = CheckITStatus(CANx->MSR, CAN_MSR_ERRI); 
 20726              		.loc 1 1270 0
 20727 0184 7B68     		ldr	r3, [r7, #4]
 20728 0186 5B68     		ldr	r3, [r3, #4]
 20729 0188 1846     		mov	r0, r3
 20730 018a 4FF00401 		mov	r1, #4
 20731 018e FFF7FEFF 		bl	CheckITStatus
 20732 0192 0346     		mov	r3, r0
 20733 0194 FB73     		strb	r3, [r7, #15]
1271:../StdPeripheralDriver/src/stm32f10x_can.c **** 	      break;
 20734              		.loc 1 1271 0
 20735 0196 00BF     		nop
 20736 0198 06E0     		b	.L164
 20737              	.L145:
1272:../StdPeripheralDriver/src/stm32f10x_can.c ****       default :
1273:../StdPeripheralDriver/src/stm32f10x_can.c ****                /* in case of error, return RESET */
1274:../StdPeripheralDriver/src/stm32f10x_can.c ****               itstatus = RESET;
 20738              		.loc 1 1274 0
 20739 019a 4FF00003 		mov	r3, #0
 20740 019e FB73     		strb	r3, [r7, #15]
1275:../StdPeripheralDriver/src/stm32f10x_can.c ****               break;
 20741              		.loc 1 1275 0
 20742 01a0 02E0     		b	.L164
 20743              	.L144:
1276:../StdPeripheralDriver/src/stm32f10x_can.c ****     }
1277:../StdPeripheralDriver/src/stm32f10x_can.c ****   }
1278:../StdPeripheralDriver/src/stm32f10x_can.c ****   else
1279:../StdPeripheralDriver/src/stm32f10x_can.c ****   {
1280:../StdPeripheralDriver/src/stm32f10x_can.c ****    /* in case the Interrupt is not enabled, return RESET */
1281:../StdPeripheralDriver/src/stm32f10x_can.c ****     itstatus  = RESET;
 20744              		.loc 1 1281 0
 20745 01a2 4FF00003 		mov	r3, #0
 20746 01a6 FB73     		strb	r3, [r7, #15]
 20747              	.L164:
1282:../StdPeripheralDriver/src/stm32f10x_can.c ****   }
1283:../StdPeripheralDriver/src/stm32f10x_can.c ****   
1284:../StdPeripheralDriver/src/stm32f10x_can.c ****   /* Return the CAN_IT status */
1285:../StdPeripheralDriver/src/stm32f10x_can.c ****   return  itstatus;
 20748              		.loc 1 1285 0
 20749 01a8 FB7B     		ldrb	r3, [r7, #15]	@ zero_extendqisi2
1286:../StdPeripheralDriver/src/stm32f10x_can.c **** }
 20750              		.loc 1 1286 0
 20751 01aa 1846     		mov	r0, r3
 20752 01ac 07F11007 		add	r7, r7, #16
 20753 01b0 BD46     		mov	sp, r7
 20754 01b2 80BD     		pop	{r7, pc}
 20755              	.L166:
 20756              		.align	2
 20757              	.L165:
 20758 01b4 01010100 		.word	65793
 20759              		.cfi_endproc
 20760              	.LFE51:
 20762              		.section	.text.CAN_ClearITPendingBit,"ax",%progbits
 20763              		.align	2
 20764              		.global	CAN_ClearITPendingBit
 20765              		.thumb
 20766              		.thumb_func
 20768              	CAN_ClearITPendingBit:
 20769              	.LFB52:
1287:../StdPeripheralDriver/src/stm32f10x_can.c **** 
1288:../StdPeripheralDriver/src/stm32f10x_can.c **** /**
1289:../StdPeripheralDriver/src/stm32f10x_can.c ****   * @brief  Clears the CANx's interrupt pending bits.
1290:../StdPeripheralDriver/src/stm32f10x_can.c ****   * @param  CANx:    where x can be 1 or 2 to to select the CAN peripheral.
1291:../StdPeripheralDriver/src/stm32f10x_can.c ****   * @param  CAN_IT: specifies the interrupt pending bit to clear.
1292:../StdPeripheralDriver/src/stm32f10x_can.c ****   *                  -  CAN_IT_TME                     
1293:../StdPeripheralDriver/src/stm32f10x_can.c ****   *                  -  CAN_IT_FF0               
1294:../StdPeripheralDriver/src/stm32f10x_can.c ****   *                  -  CAN_IT_FOV0                     
1295:../StdPeripheralDriver/src/stm32f10x_can.c ****   *                  -  CAN_IT_FF1               
1296:../StdPeripheralDriver/src/stm32f10x_can.c ****   *                  -  CAN_IT_FOV1              
1297:../StdPeripheralDriver/src/stm32f10x_can.c ****   *                  -  CAN_IT_WKU  
1298:../StdPeripheralDriver/src/stm32f10x_can.c ****   *                  -  CAN_IT_SLK  
1299:../StdPeripheralDriver/src/stm32f10x_can.c ****   *                  -  CAN_IT_EWG    
1300:../StdPeripheralDriver/src/stm32f10x_can.c ****   *                  -  CAN_IT_EPV    
1301:../StdPeripheralDriver/src/stm32f10x_can.c ****   *                  -  CAN_IT_BOF    
1302:../StdPeripheralDriver/src/stm32f10x_can.c ****   *                  -  CAN_IT_LEC    
1303:../StdPeripheralDriver/src/stm32f10x_can.c ****   *                  -  CAN_IT_ERR 
1304:../StdPeripheralDriver/src/stm32f10x_can.c ****   * @retval None.
1305:../StdPeripheralDriver/src/stm32f10x_can.c ****   */
1306:../StdPeripheralDriver/src/stm32f10x_can.c **** void CAN_ClearITPendingBit(CAN_TypeDef* CANx, uint32_t CAN_IT)
1307:../StdPeripheralDriver/src/stm32f10x_can.c **** {
 20770              		.loc 1 1307 0
 20771              		.cfi_startproc
 20772              		@ args = 0, pretend = 0, frame = 8
 20773              		@ frame_needed = 1, uses_anonymous_args = 0
 20774              		@ link register save eliminated.
 20775 0000 80B4     		push	{r7}
 20776              	.LCFI69:
 20777              		.cfi_def_cfa_offset 4
 20778 0002 83B0     		sub	sp, sp, #12
 20779              	.LCFI70:
 20780              		.cfi_def_cfa_offset 16
 20781 0004 00AF     		add	r7, sp, #0
 20782              		.cfi_offset 7, -4
 20783              	.LCFI71:
 20784              		.cfi_def_cfa_register 7
 20785 0006 7860     		str	r0, [r7, #4]
 20786 0008 3960     		str	r1, [r7, #0]
1308:../StdPeripheralDriver/src/stm32f10x_can.c ****   /* Check the parameters */
1309:../StdPeripheralDriver/src/stm32f10x_can.c ****   assert_param(IS_CAN_ALL_PERIPH(CANx));
1310:../StdPeripheralDriver/src/stm32f10x_can.c ****   assert_param(IS_CAN_CLEAR_IT(CAN_IT));
1311:../StdPeripheralDriver/src/stm32f10x_can.c **** 
1312:../StdPeripheralDriver/src/stm32f10x_can.c ****   switch (CAN_IT)
 20787              		.loc 1 1312 0
 20788 000a 3B68     		ldr	r3, [r7, #0]
 20789 000c B3F5807F 		cmp	r3, #256
 20790 0010 49D0     		beq	.L174
 20791 0012 B3F5807F 		cmp	r3, #256
 20792 0016 0DD8     		bhi	.L181
 20793 0018 082B     		cmp	r3, #8
 20794 001a 2BD0     		beq	.L171
 20795 001c 082B     		cmp	r3, #8
 20796 001e 04D8     		bhi	.L182
 20797 0020 012B     		cmp	r3, #1
 20798 0022 1ED0     		beq	.L169
 20799 0024 042B     		cmp	r3, #4
 20800 0026 20D0     		beq	.L170
1313:../StdPeripheralDriver/src/stm32f10x_can.c ****   {
1314:../StdPeripheralDriver/src/stm32f10x_can.c ****       case CAN_IT_TME:
1315:../StdPeripheralDriver/src/stm32f10x_can.c ****               /* Clear CAN_TSR_RQCPx (rc_w1)*/
1316:../StdPeripheralDriver/src/stm32f10x_can.c **** 	      CANx->TSR = CAN_TSR_RQCP0|CAN_TSR_RQCP1|CAN_TSR_RQCP2;  
1317:../StdPeripheralDriver/src/stm32f10x_can.c **** 	      break;
1318:../StdPeripheralDriver/src/stm32f10x_can.c ****       case CAN_IT_FF0:
1319:../StdPeripheralDriver/src/stm32f10x_can.c ****               /* Clear CAN_RF0R_FULL0 (rc_w1)*/
1320:../StdPeripheralDriver/src/stm32f10x_can.c **** 	      CANx->RF0R = CAN_RF0R_FULL0; 
1321:../StdPeripheralDriver/src/stm32f10x_can.c **** 	      break;
1322:../StdPeripheralDriver/src/stm32f10x_can.c ****       case CAN_IT_FOV0:
1323:../StdPeripheralDriver/src/stm32f10x_can.c ****               /* Clear CAN_RF0R_FOVR0 (rc_w1)*/
1324:../StdPeripheralDriver/src/stm32f10x_can.c **** 	      CANx->RF0R = CAN_RF0R_FOVR0; 
1325:../StdPeripheralDriver/src/stm32f10x_can.c **** 	      break;
1326:../StdPeripheralDriver/src/stm32f10x_can.c ****       case CAN_IT_FF1:
1327:../StdPeripheralDriver/src/stm32f10x_can.c ****               /* Clear CAN_RF1R_FULL1 (rc_w1)*/
1328:../StdPeripheralDriver/src/stm32f10x_can.c **** 	      CANx->RF1R = CAN_RF1R_FULL1;  
1329:../StdPeripheralDriver/src/stm32f10x_can.c **** 	      break;
1330:../StdPeripheralDriver/src/stm32f10x_can.c ****       case CAN_IT_FOV1:
1331:../StdPeripheralDriver/src/stm32f10x_can.c ****               /* Clear CAN_RF1R_FOVR1 (rc_w1)*/
1332:../StdPeripheralDriver/src/stm32f10x_can.c **** 	      CANx->RF1R = CAN_RF1R_FOVR1; 
1333:../StdPeripheralDriver/src/stm32f10x_can.c **** 	      break;
1334:../StdPeripheralDriver/src/stm32f10x_can.c ****       case CAN_IT_WKU:
1335:../StdPeripheralDriver/src/stm32f10x_can.c ****               /* Clear CAN_MSR_WKUI (rc_w1)*/
1336:../StdPeripheralDriver/src/stm32f10x_can.c **** 	      CANx->MSR = CAN_MSR_WKUI;  
1337:../StdPeripheralDriver/src/stm32f10x_can.c **** 	      break;
1338:../StdPeripheralDriver/src/stm32f10x_can.c ****       case CAN_IT_SLK:
1339:../StdPeripheralDriver/src/stm32f10x_can.c ****               /* Clear CAN_MSR_SLAKI (rc_w1)*/ 
1340:../StdPeripheralDriver/src/stm32f10x_can.c **** 	      CANx->MSR = CAN_MSR_SLAKI;   
1341:../StdPeripheralDriver/src/stm32f10x_can.c **** 	      break;
1342:../StdPeripheralDriver/src/stm32f10x_can.c ****       case CAN_IT_EWG:
1343:../StdPeripheralDriver/src/stm32f10x_can.c ****               /* Clear CAN_MSR_ERRI (rc_w1) */
1344:../StdPeripheralDriver/src/stm32f10x_can.c **** 	      CANx->MSR = CAN_MSR_ERRI;
1345:../StdPeripheralDriver/src/stm32f10x_can.c ****               /* Note : the corresponding Flag is cleared by hardware depending 
1346:../StdPeripheralDriver/src/stm32f10x_can.c ****                         of the CAN Bus status*/ 
1347:../StdPeripheralDriver/src/stm32f10x_can.c **** 	      break;
1348:../StdPeripheralDriver/src/stm32f10x_can.c ****       case CAN_IT_EPV:
1349:../StdPeripheralDriver/src/stm32f10x_can.c ****               /* Clear CAN_MSR_ERRI (rc_w1) */
1350:../StdPeripheralDriver/src/stm32f10x_can.c **** 	      CANx->MSR = CAN_MSR_ERRI; 
1351:../StdPeripheralDriver/src/stm32f10x_can.c ****               /* Note : the corresponding Flag is cleared by hardware depending 
1352:../StdPeripheralDriver/src/stm32f10x_can.c ****                         of the CAN Bus status*/
1353:../StdPeripheralDriver/src/stm32f10x_can.c **** 	      break;
1354:../StdPeripheralDriver/src/stm32f10x_can.c ****       case CAN_IT_BOF:
1355:../StdPeripheralDriver/src/stm32f10x_can.c ****               /* Clear CAN_MSR_ERRI (rc_w1) */ 
1356:../StdPeripheralDriver/src/stm32f10x_can.c **** 	      CANx->MSR = CAN_MSR_ERRI; 
1357:../StdPeripheralDriver/src/stm32f10x_can.c ****               /* Note : the corresponding Flag is cleared by hardware depending 
1358:../StdPeripheralDriver/src/stm32f10x_can.c ****                         of the CAN Bus status*/
1359:../StdPeripheralDriver/src/stm32f10x_can.c **** 	      break;
1360:../StdPeripheralDriver/src/stm32f10x_can.c ****       case CAN_IT_LEC:
1361:../StdPeripheralDriver/src/stm32f10x_can.c ****               /*  Clear LEC bits */
1362:../StdPeripheralDriver/src/stm32f10x_can.c **** 	      CANx->ESR = RESET; 
1363:../StdPeripheralDriver/src/stm32f10x_can.c ****               /* Clear CAN_MSR_ERRI (rc_w1) */
1364:../StdPeripheralDriver/src/stm32f10x_can.c **** 	      CANx->MSR = CAN_MSR_ERRI; 
1365:../StdPeripheralDriver/src/stm32f10x_can.c **** 	      break;
1366:../StdPeripheralDriver/src/stm32f10x_can.c ****       case CAN_IT_ERR:
1367:../StdPeripheralDriver/src/stm32f10x_can.c ****               /*Clear LEC bits */
1368:../StdPeripheralDriver/src/stm32f10x_can.c **** 	      CANx->ESR = RESET; 
1369:../StdPeripheralDriver/src/stm32f10x_can.c ****               /* Clear CAN_MSR_ERRI (rc_w1) */
1370:../StdPeripheralDriver/src/stm32f10x_can.c **** 	      CANx->MSR = CAN_MSR_ERRI; 
1371:../StdPeripheralDriver/src/stm32f10x_can.c **** 	      /* Note : BOFF, EPVF and EWGF Flags are cleared by hardware depending 
1372:../StdPeripheralDriver/src/stm32f10x_can.c ****                   of the CAN Bus status*/
1373:../StdPeripheralDriver/src/stm32f10x_can.c **** 	      break;
1374:../StdPeripheralDriver/src/stm32f10x_can.c ****       default :
1375:../StdPeripheralDriver/src/stm32f10x_can.c **** 	      break;
 20801              		.loc 1 1375 0
 20802 0028 5EE0     		b	.L167
 20803              	.L182:
1312:../StdPeripheralDriver/src/stm32f10x_can.c ****   switch (CAN_IT)
 20804              		.loc 1 1312 0
 20805 002a 202B     		cmp	r3, #32
 20806 002c 27D0     		beq	.L172
 20807 002e 402B     		cmp	r3, #64
 20808 0030 2AD0     		beq	.L173
 20809              		.loc 1 1375 0
 20810 0032 59E0     		b	.L167
 20811              	.L181:
1312:../StdPeripheralDriver/src/stm32f10x_can.c ****   switch (CAN_IT)
 20812              		.loc 1 1312 0
 20813 0034 B3F5006F 		cmp	r3, #2048
 20814 0038 44D0     		beq	.L177
 20815 003a B3F5006F 		cmp	r3, #2048
 20816 003e 06D8     		bhi	.L183
 20817 0040 B3F5007F 		cmp	r3, #512
 20818 0044 34D0     		beq	.L175
 20819 0046 B3F5806F 		cmp	r3, #1024
 20820 004a 36D0     		beq	.L176
 20821              		.loc 1 1375 0
 20822 004c 4CE0     		b	.L167
 20823              	.L183:
1312:../StdPeripheralDriver/src/stm32f10x_can.c ****   switch (CAN_IT)
 20824              		.loc 1 1312 0
 20825 004e B3F5803F 		cmp	r3, #65536
 20826 0052 1ED0     		beq	.L179
 20827 0054 B3F5003F 		cmp	r3, #131072
 20828 0058 20D0     		beq	.L180
 20829 005a B3F5004F 		cmp	r3, #32768
 20830 005e 3AD0     		beq	.L178
 20831              		.loc 1 1375 0
 20832 0060 42E0     		b	.L167
 20833              	.L169:
1316:../StdPeripheralDriver/src/stm32f10x_can.c **** 	      CANx->TSR = CAN_TSR_RQCP0|CAN_TSR_RQCP1|CAN_TSR_RQCP2;  
 20834              		.loc 1 1316 0
 20835 0062 7B68     		ldr	r3, [r7, #4]
 20836 0064 234A     		ldr	r2, .L185
 20837 0066 9A60     		str	r2, [r3, #8]
1317:../StdPeripheralDriver/src/stm32f10x_can.c **** 	      break;
 20838              		.loc 1 1317 0
 20839 0068 3EE0     		b	.L167
 20840              	.L170:
1320:../StdPeripheralDriver/src/stm32f10x_can.c **** 	      CANx->RF0R = CAN_RF0R_FULL0; 
 20841              		.loc 1 1320 0
 20842 006a 7B68     		ldr	r3, [r7, #4]
 20843 006c 4FF00802 		mov	r2, #8
 20844 0070 DA60     		str	r2, [r3, #12]
1321:../StdPeripheralDriver/src/stm32f10x_can.c **** 	      break;
 20845              		.loc 1 1321 0
 20846 0072 39E0     		b	.L167
 20847              	.L171:
1324:../StdPeripheralDriver/src/stm32f10x_can.c **** 	      CANx->RF0R = CAN_RF0R_FOVR0; 
 20848              		.loc 1 1324 0
 20849 0074 7B68     		ldr	r3, [r7, #4]
 20850 0076 4FF01002 		mov	r2, #16
 20851 007a DA60     		str	r2, [r3, #12]
1325:../StdPeripheralDriver/src/stm32f10x_can.c **** 	      break;
 20852              		.loc 1 1325 0
 20853 007c 34E0     		b	.L167
 20854              	.L172:
1328:../StdPeripheralDriver/src/stm32f10x_can.c **** 	      CANx->RF1R = CAN_RF1R_FULL1;  
 20855              		.loc 1 1328 0
 20856 007e 7B68     		ldr	r3, [r7, #4]
 20857 0080 4FF00802 		mov	r2, #8
 20858 0084 1A61     		str	r2, [r3, #16]
1329:../StdPeripheralDriver/src/stm32f10x_can.c **** 	      break;
 20859              		.loc 1 1329 0
 20860 0086 2FE0     		b	.L167
 20861              	.L173:
1332:../StdPeripheralDriver/src/stm32f10x_can.c **** 	      CANx->RF1R = CAN_RF1R_FOVR1; 
 20862              		.loc 1 1332 0
 20863 0088 7B68     		ldr	r3, [r7, #4]
 20864 008a 4FF01002 		mov	r2, #16
 20865 008e 1A61     		str	r2, [r3, #16]
1333:../StdPeripheralDriver/src/stm32f10x_can.c **** 	      break;
 20866              		.loc 1 1333 0
 20867 0090 2AE0     		b	.L167
 20868              	.L179:
1336:../StdPeripheralDriver/src/stm32f10x_can.c **** 	      CANx->MSR = CAN_MSR_WKUI;  
 20869              		.loc 1 1336 0
 20870 0092 7B68     		ldr	r3, [r7, #4]
 20871 0094 4FF00802 		mov	r2, #8
 20872 0098 5A60     		str	r2, [r3, #4]
1337:../StdPeripheralDriver/src/stm32f10x_can.c **** 	      break;
 20873              		.loc 1 1337 0
 20874 009a 25E0     		b	.L167
 20875              	.L180:
1340:../StdPeripheralDriver/src/stm32f10x_can.c **** 	      CANx->MSR = CAN_MSR_SLAKI;   
 20876              		.loc 1 1340 0
 20877 009c 7B68     		ldr	r3, [r7, #4]
 20878 009e 4FF01002 		mov	r2, #16
 20879 00a2 5A60     		str	r2, [r3, #4]
1341:../StdPeripheralDriver/src/stm32f10x_can.c **** 	      break;
 20880              		.loc 1 1341 0
 20881 00a4 20E0     		b	.L167
 20882              	.L174:
1344:../StdPeripheralDriver/src/stm32f10x_can.c **** 	      CANx->MSR = CAN_MSR_ERRI;
 20883              		.loc 1 1344 0
 20884 00a6 7B68     		ldr	r3, [r7, #4]
 20885 00a8 4FF00402 		mov	r2, #4
 20886 00ac 5A60     		str	r2, [r3, #4]
1347:../StdPeripheralDriver/src/stm32f10x_can.c **** 	      break;
 20887              		.loc 1 1347 0
 20888 00ae 1BE0     		b	.L167
 20889              	.L175:
1350:../StdPeripheralDriver/src/stm32f10x_can.c **** 	      CANx->MSR = CAN_MSR_ERRI; 
 20890              		.loc 1 1350 0
 20891 00b0 7B68     		ldr	r3, [r7, #4]
 20892 00b2 4FF00402 		mov	r2, #4
 20893 00b6 5A60     		str	r2, [r3, #4]
1353:../StdPeripheralDriver/src/stm32f10x_can.c **** 	      break;
 20894              		.loc 1 1353 0
 20895 00b8 16E0     		b	.L167
 20896              	.L176:
1356:../StdPeripheralDriver/src/stm32f10x_can.c **** 	      CANx->MSR = CAN_MSR_ERRI; 
 20897              		.loc 1 1356 0
 20898 00ba 7B68     		ldr	r3, [r7, #4]
 20899 00bc 4FF00402 		mov	r2, #4
 20900 00c0 5A60     		str	r2, [r3, #4]
1359:../StdPeripheralDriver/src/stm32f10x_can.c **** 	      break;
 20901              		.loc 1 1359 0
 20902 00c2 11E0     		b	.L167
 20903              	.L177:
1362:../StdPeripheralDriver/src/stm32f10x_can.c **** 	      CANx->ESR = RESET; 
 20904              		.loc 1 1362 0
 20905 00c4 7B68     		ldr	r3, [r7, #4]
 20906 00c6 4FF00002 		mov	r2, #0
 20907 00ca 9A61     		str	r2, [r3, #24]
1364:../StdPeripheralDriver/src/stm32f10x_can.c **** 	      CANx->MSR = CAN_MSR_ERRI; 
 20908              		.loc 1 1364 0
 20909 00cc 7B68     		ldr	r3, [r7, #4]
 20910 00ce 4FF00402 		mov	r2, #4
 20911 00d2 5A60     		str	r2, [r3, #4]
1365:../StdPeripheralDriver/src/stm32f10x_can.c **** 	      break;
 20912              		.loc 1 1365 0
 20913 00d4 08E0     		b	.L167
 20914              	.L178:
1368:../StdPeripheralDriver/src/stm32f10x_can.c **** 	      CANx->ESR = RESET; 
 20915              		.loc 1 1368 0
 20916 00d6 7B68     		ldr	r3, [r7, #4]
 20917 00d8 4FF00002 		mov	r2, #0
 20918 00dc 9A61     		str	r2, [r3, #24]
1370:../StdPeripheralDriver/src/stm32f10x_can.c **** 	      CANx->MSR = CAN_MSR_ERRI; 
 20919              		.loc 1 1370 0
 20920 00de 7B68     		ldr	r3, [r7, #4]
 20921 00e0 4FF00402 		mov	r2, #4
 20922 00e4 5A60     		str	r2, [r3, #4]
1373:../StdPeripheralDriver/src/stm32f10x_can.c **** 	      break;
 20923              		.loc 1 1373 0
 20924 00e6 00BF     		nop
 20925              	.L167:
1376:../StdPeripheralDriver/src/stm32f10x_can.c ****    }
1377:../StdPeripheralDriver/src/stm32f10x_can.c **** }
 20926              		.loc 1 1377 0
 20927 00e8 07F10C07 		add	r7, r7, #12
 20928 00ec BD46     		mov	sp, r7
 20929 00ee 80BC     		pop	{r7}
 20930 00f0 7047     		bx	lr
 20931              	.L186:
 20932 00f2 00BF     		.align	2
 20933              	.L185:
 20934 00f4 01010100 		.word	65793
 20935              		.cfi_endproc
 20936              	.LFE52:
 20938              		.section	.text.CheckITStatus,"ax",%progbits
 20939              		.align	2
 20940              		.thumb
 20941              		.thumb_func
 20943              	CheckITStatus:
 20944              	.LFB53:
1378:../StdPeripheralDriver/src/stm32f10x_can.c **** 
1379:../StdPeripheralDriver/src/stm32f10x_can.c **** /**
1380:../StdPeripheralDriver/src/stm32f10x_can.c ****   * @brief  Checks whether the CAN interrupt has occurred or not.
1381:../StdPeripheralDriver/src/stm32f10x_can.c ****   * @param  CAN_Reg: specifies the CAN interrupt register to check.
1382:../StdPeripheralDriver/src/stm32f10x_can.c ****   * @param  It_Bit:  specifies the interrupt source bit to check.
1383:../StdPeripheralDriver/src/stm32f10x_can.c ****   * @retval The new state of the CAN Interrupt (SET or RESET).
1384:../StdPeripheralDriver/src/stm32f10x_can.c ****   */
1385:../StdPeripheralDriver/src/stm32f10x_can.c **** static ITStatus CheckITStatus(uint32_t CAN_Reg, uint32_t It_Bit)
1386:../StdPeripheralDriver/src/stm32f10x_can.c **** {
 20945              		.loc 1 1386 0
 20946              		.cfi_startproc
 20947              		@ args = 0, pretend = 0, frame = 16
 20948              		@ frame_needed = 1, uses_anonymous_args = 0
 20949              		@ link register save eliminated.
 20950 0000 80B4     		push	{r7}
 20951              	.LCFI72:
 20952              		.cfi_def_cfa_offset 4
 20953 0002 85B0     		sub	sp, sp, #20
 20954              	.LCFI73:
 20955              		.cfi_def_cfa_offset 24
 20956 0004 00AF     		add	r7, sp, #0
 20957              		.cfi_offset 7, -4
 20958              	.LCFI74:
 20959              		.cfi_def_cfa_register 7
 20960 0006 7860     		str	r0, [r7, #4]
 20961 0008 3960     		str	r1, [r7, #0]
1387:../StdPeripheralDriver/src/stm32f10x_can.c ****   ITStatus pendingbitstatus = RESET;
 20962              		.loc 1 1387 0
 20963 000a 4FF00003 		mov	r3, #0
 20964 000e FB73     		strb	r3, [r7, #15]
1388:../StdPeripheralDriver/src/stm32f10x_can.c ****   
1389:../StdPeripheralDriver/src/stm32f10x_can.c ****   if ((CAN_Reg & It_Bit) != (uint32_t)RESET)
 20965              		.loc 1 1389 0
 20966 0010 7A68     		ldr	r2, [r7, #4]
 20967 0012 3B68     		ldr	r3, [r7, #0]
 20968 0014 02EA0303 		and	r3, r2, r3
 20969 0018 002B     		cmp	r3, #0
 20970 001a 03D0     		beq	.L188
1390:../StdPeripheralDriver/src/stm32f10x_can.c ****   {
1391:../StdPeripheralDriver/src/stm32f10x_can.c ****     /* CAN_IT is set */
1392:../StdPeripheralDriver/src/stm32f10x_can.c ****     pendingbitstatus = SET;
 20971              		.loc 1 1392 0
 20972 001c 4FF00103 		mov	r3, #1
 20973 0020 FB73     		strb	r3, [r7, #15]
 20974 0022 02E0     		b	.L189
 20975              	.L188:
1393:../StdPeripheralDriver/src/stm32f10x_can.c ****   }
1394:../StdPeripheralDriver/src/stm32f10x_can.c ****   else
1395:../StdPeripheralDriver/src/stm32f10x_can.c ****   {
1396:../StdPeripheralDriver/src/stm32f10x_can.c ****     /* CAN_IT is reset */
1397:../StdPeripheralDriver/src/stm32f10x_can.c ****     pendingbitstatus = RESET;
 20976              		.loc 1 1397 0
 20977 0024 4FF00003 		mov	r3, #0
 20978 0028 FB73     		strb	r3, [r7, #15]
 20979              	.L189:
1398:../StdPeripheralDriver/src/stm32f10x_can.c ****   }
1399:../StdPeripheralDriver/src/stm32f10x_can.c ****   return pendingbitstatus;
 20980              		.loc 1 1399 0
 20981 002a FB7B     		ldrb	r3, [r7, #15]	@ zero_extendqisi2
1400:../StdPeripheralDriver/src/stm32f10x_can.c **** }
 20982              		.loc 1 1400 0
 20983 002c 1846     		mov	r0, r3
 20984 002e 07F11407 		add	r7, r7, #20
 20985 0032 BD46     		mov	sp, r7
 20986 0034 80BC     		pop	{r7}
 20987 0036 7047     		bx	lr
 20988              		.cfi_endproc
 20989              	.LFE53:
 20991              		.text
 20992              	.Letext0: