   1              		.syntax unified
   2              		.cpu cortex-m3
   3              		.fpu softvfp
   4              		.eabi_attribute 20, 1
   5              		.eabi_attribute 21, 1
   6              		.eabi_attribute 23, 3
   7              		.eabi_attribute 24, 1
   8              		.eabi_attribute 25, 1
   9              		.eabi_attribute 26, 1
  10              		.eabi_attribute 30, 6
  11              		.eabi_attribute 18, 4
  12              		.thumb
  13              		.file	"stm32f10x_flash.c"
  23              	.Ltext0:
  24              		.file 1 "../StdPeripheralDriver/src/stm32f10x_flash.c"
 17992              		.align	2
 17993              		.global	FLASH_SetLatency
 17994              		.thumb
 17995              		.thumb_func
 17997              	FLASH_SetLatency:
 17998              	.LFB29:
   1:../StdPeripheralDriver/src/stm32f10x_flash.c **** /**
   2:../StdPeripheralDriver/src/stm32f10x_flash.c ****   ******************************************************************************
   3:../StdPeripheralDriver/src/stm32f10x_flash.c ****   * @file    stm32f10x_flash.c
   4:../StdPeripheralDriver/src/stm32f10x_flash.c ****   * @author  MCD Application Team
   5:../StdPeripheralDriver/src/stm32f10x_flash.c ****   * @version V3.5.0
   6:../StdPeripheralDriver/src/stm32f10x_flash.c ****   * @date    11-March-2011
   7:../StdPeripheralDriver/src/stm32f10x_flash.c ****   * @brief   This file provides all the FLASH firmware functions.
   8:../StdPeripheralDriver/src/stm32f10x_flash.c ****   ******************************************************************************
   9:../StdPeripheralDriver/src/stm32f10x_flash.c ****   * @attention
  10:../StdPeripheralDriver/src/stm32f10x_flash.c ****   *
  11:../StdPeripheralDriver/src/stm32f10x_flash.c ****   * THE PRESENT FIRMWARE WHICH IS FOR GUIDANCE ONLY AIMS AT PROVIDING CUSTOMERS
  12:../StdPeripheralDriver/src/stm32f10x_flash.c ****   * WITH CODING INFORMATION REGARDING THEIR PRODUCTS IN ORDER FOR THEM TO SAVE
  13:../StdPeripheralDriver/src/stm32f10x_flash.c ****   * TIME. AS A RESULT, STMICROELECTRONICS SHALL NOT BE HELD LIABLE FOR ANY
  14:../StdPeripheralDriver/src/stm32f10x_flash.c ****   * DIRECT, INDIRECT OR CONSEQUENTIAL DAMAGES WITH RESPECT TO ANY CLAIMS ARISING
  15:../StdPeripheralDriver/src/stm32f10x_flash.c ****   * FROM THE CONTENT OF SUCH FIRMWARE AND/OR THE USE MADE BY CUSTOMERS OF THE
  16:../StdPeripheralDriver/src/stm32f10x_flash.c ****   * CODING INFORMATION CONTAINED HEREIN IN CONNECTION WITH THEIR PRODUCTS.
  17:../StdPeripheralDriver/src/stm32f10x_flash.c ****   *
  18:../StdPeripheralDriver/src/stm32f10x_flash.c ****   * <h2><center>&copy; COPYRIGHT 2011 STMicroelectronics</center></h2>
  19:../StdPeripheralDriver/src/stm32f10x_flash.c ****   ******************************************************************************
  20:../StdPeripheralDriver/src/stm32f10x_flash.c ****   */
  21:../StdPeripheralDriver/src/stm32f10x_flash.c **** 
  22:../StdPeripheralDriver/src/stm32f10x_flash.c **** /* Includes ------------------------------------------------------------------*/
  23:../StdPeripheralDriver/src/stm32f10x_flash.c **** #include "stm32f10x_flash.h"
  24:../StdPeripheralDriver/src/stm32f10x_flash.c **** 
  25:../StdPeripheralDriver/src/stm32f10x_flash.c **** /** @addtogroup STM32F10x_StdPeriph_Driver
  26:../StdPeripheralDriver/src/stm32f10x_flash.c ****   * @{
  27:../StdPeripheralDriver/src/stm32f10x_flash.c ****   */
  28:../StdPeripheralDriver/src/stm32f10x_flash.c **** 
  29:../StdPeripheralDriver/src/stm32f10x_flash.c **** /** @defgroup FLASH 
  30:../StdPeripheralDriver/src/stm32f10x_flash.c ****   * @brief FLASH driver modules
  31:../StdPeripheralDriver/src/stm32f10x_flash.c ****   * @{
  32:../StdPeripheralDriver/src/stm32f10x_flash.c ****   */ 
  33:../StdPeripheralDriver/src/stm32f10x_flash.c **** 
  34:../StdPeripheralDriver/src/stm32f10x_flash.c **** /** @defgroup FLASH_Private_TypesDefinitions
  35:../StdPeripheralDriver/src/stm32f10x_flash.c ****   * @{
  36:../StdPeripheralDriver/src/stm32f10x_flash.c ****   */
  37:../StdPeripheralDriver/src/stm32f10x_flash.c **** 
  38:../StdPeripheralDriver/src/stm32f10x_flash.c **** /**
  39:../StdPeripheralDriver/src/stm32f10x_flash.c ****   * @}
  40:../StdPeripheralDriver/src/stm32f10x_flash.c ****   */ 
  41:../StdPeripheralDriver/src/stm32f10x_flash.c **** 
  42:../StdPeripheralDriver/src/stm32f10x_flash.c **** /** @defgroup FLASH_Private_Defines
  43:../StdPeripheralDriver/src/stm32f10x_flash.c ****   * @{
  44:../StdPeripheralDriver/src/stm32f10x_flash.c ****   */ 
  45:../StdPeripheralDriver/src/stm32f10x_flash.c **** 
  46:../StdPeripheralDriver/src/stm32f10x_flash.c **** /* Flash Access Control Register bits */
  47:../StdPeripheralDriver/src/stm32f10x_flash.c **** #define ACR_LATENCY_Mask         ((uint32_t)0x00000038)
  48:../StdPeripheralDriver/src/stm32f10x_flash.c **** #define ACR_HLFCYA_Mask          ((uint32_t)0xFFFFFFF7)
  49:../StdPeripheralDriver/src/stm32f10x_flash.c **** #define ACR_PRFTBE_Mask          ((uint32_t)0xFFFFFFEF)
  50:../StdPeripheralDriver/src/stm32f10x_flash.c **** 
  51:../StdPeripheralDriver/src/stm32f10x_flash.c **** /* Flash Access Control Register bits */
  52:../StdPeripheralDriver/src/stm32f10x_flash.c **** #define ACR_PRFTBS_Mask          ((uint32_t)0x00000020) 
  53:../StdPeripheralDriver/src/stm32f10x_flash.c **** 
  54:../StdPeripheralDriver/src/stm32f10x_flash.c **** /* Flash Control Register bits */
  55:../StdPeripheralDriver/src/stm32f10x_flash.c **** #define CR_PG_Set                ((uint32_t)0x00000001)
  56:../StdPeripheralDriver/src/stm32f10x_flash.c **** #define CR_PG_Reset              ((uint32_t)0x00001FFE) 
  57:../StdPeripheralDriver/src/stm32f10x_flash.c **** #define CR_PER_Set               ((uint32_t)0x00000002)
  58:../StdPeripheralDriver/src/stm32f10x_flash.c **** #define CR_PER_Reset             ((uint32_t)0x00001FFD)
  59:../StdPeripheralDriver/src/stm32f10x_flash.c **** #define CR_MER_Set               ((uint32_t)0x00000004)
  60:../StdPeripheralDriver/src/stm32f10x_flash.c **** #define CR_MER_Reset             ((uint32_t)0x00001FFB)
  61:../StdPeripheralDriver/src/stm32f10x_flash.c **** #define CR_OPTPG_Set             ((uint32_t)0x00000010)
  62:../StdPeripheralDriver/src/stm32f10x_flash.c **** #define CR_OPTPG_Reset           ((uint32_t)0x00001FEF)
  63:../StdPeripheralDriver/src/stm32f10x_flash.c **** #define CR_OPTER_Set             ((uint32_t)0x00000020)
  64:../StdPeripheralDriver/src/stm32f10x_flash.c **** #define CR_OPTER_Reset           ((uint32_t)0x00001FDF)
  65:../StdPeripheralDriver/src/stm32f10x_flash.c **** #define CR_STRT_Set              ((uint32_t)0x00000040)
  66:../StdPeripheralDriver/src/stm32f10x_flash.c **** #define CR_LOCK_Set              ((uint32_t)0x00000080)
  67:../StdPeripheralDriver/src/stm32f10x_flash.c **** 
  68:../StdPeripheralDriver/src/stm32f10x_flash.c **** /* FLASH Mask */
  69:../StdPeripheralDriver/src/stm32f10x_flash.c **** #define RDPRT_Mask               ((uint32_t)0x00000002)
  70:../StdPeripheralDriver/src/stm32f10x_flash.c **** #define WRP0_Mask                ((uint32_t)0x000000FF)
  71:../StdPeripheralDriver/src/stm32f10x_flash.c **** #define WRP1_Mask                ((uint32_t)0x0000FF00)
  72:../StdPeripheralDriver/src/stm32f10x_flash.c **** #define WRP2_Mask                ((uint32_t)0x00FF0000)
  73:../StdPeripheralDriver/src/stm32f10x_flash.c **** #define WRP3_Mask                ((uint32_t)0xFF000000)
  74:../StdPeripheralDriver/src/stm32f10x_flash.c **** #define OB_USER_BFB2             ((uint16_t)0x0008)
  75:../StdPeripheralDriver/src/stm32f10x_flash.c **** 
  76:../StdPeripheralDriver/src/stm32f10x_flash.c **** /* FLASH Keys */
  77:../StdPeripheralDriver/src/stm32f10x_flash.c **** #define RDP_Key                  ((uint16_t)0x00A5)
  78:../StdPeripheralDriver/src/stm32f10x_flash.c **** #define FLASH_KEY1               ((uint32_t)0x45670123)
  79:../StdPeripheralDriver/src/stm32f10x_flash.c **** #define FLASH_KEY2               ((uint32_t)0xCDEF89AB)
  80:../StdPeripheralDriver/src/stm32f10x_flash.c **** 
  81:../StdPeripheralDriver/src/stm32f10x_flash.c **** /* FLASH BANK address */
  82:../StdPeripheralDriver/src/stm32f10x_flash.c **** #define FLASH_BANK1_END_ADDRESS   ((uint32_t)0x807FFFF)
  83:../StdPeripheralDriver/src/stm32f10x_flash.c **** 
  84:../StdPeripheralDriver/src/stm32f10x_flash.c **** /* Delay definition */   
  85:../StdPeripheralDriver/src/stm32f10x_flash.c **** #define EraseTimeout          ((uint32_t)0x000B0000)
  86:../StdPeripheralDriver/src/stm32f10x_flash.c **** #define ProgramTimeout        ((uint32_t)0x00002000)
  87:../StdPeripheralDriver/src/stm32f10x_flash.c **** /**
  88:../StdPeripheralDriver/src/stm32f10x_flash.c ****   * @}
  89:../StdPeripheralDriver/src/stm32f10x_flash.c ****   */ 
  90:../StdPeripheralDriver/src/stm32f10x_flash.c **** 
  91:../StdPeripheralDriver/src/stm32f10x_flash.c **** /** @defgroup FLASH_Private_Macros
  92:../StdPeripheralDriver/src/stm32f10x_flash.c ****   * @{
  93:../StdPeripheralDriver/src/stm32f10x_flash.c ****   */
  94:../StdPeripheralDriver/src/stm32f10x_flash.c **** 
  95:../StdPeripheralDriver/src/stm32f10x_flash.c **** /**
  96:../StdPeripheralDriver/src/stm32f10x_flash.c ****   * @}
  97:../StdPeripheralDriver/src/stm32f10x_flash.c ****   */ 
  98:../StdPeripheralDriver/src/stm32f10x_flash.c **** 
  99:../StdPeripheralDriver/src/stm32f10x_flash.c **** /** @defgroup FLASH_Private_Variables
 100:../StdPeripheralDriver/src/stm32f10x_flash.c ****   * @{
 101:../StdPeripheralDriver/src/stm32f10x_flash.c ****   */
 102:../StdPeripheralDriver/src/stm32f10x_flash.c **** 
 103:../StdPeripheralDriver/src/stm32f10x_flash.c **** /**
 104:../StdPeripheralDriver/src/stm32f10x_flash.c ****   * @}
 105:../StdPeripheralDriver/src/stm32f10x_flash.c ****   */ 
 106:../StdPeripheralDriver/src/stm32f10x_flash.c **** 
 107:../StdPeripheralDriver/src/stm32f10x_flash.c **** /** @defgroup FLASH_Private_FunctionPrototypes
 108:../StdPeripheralDriver/src/stm32f10x_flash.c ****   * @{
 109:../StdPeripheralDriver/src/stm32f10x_flash.c ****   */
 110:../StdPeripheralDriver/src/stm32f10x_flash.c ****   
 111:../StdPeripheralDriver/src/stm32f10x_flash.c **** /**
 112:../StdPeripheralDriver/src/stm32f10x_flash.c ****   * @}
 113:../StdPeripheralDriver/src/stm32f10x_flash.c ****   */
 114:../StdPeripheralDriver/src/stm32f10x_flash.c **** 
 115:../StdPeripheralDriver/src/stm32f10x_flash.c **** /** @defgroup FLASH_Private_Functions
 116:../StdPeripheralDriver/src/stm32f10x_flash.c ****   * @{
 117:../StdPeripheralDriver/src/stm32f10x_flash.c ****   */
 118:../StdPeripheralDriver/src/stm32f10x_flash.c **** 
 119:../StdPeripheralDriver/src/stm32f10x_flash.c **** /**
 120:../StdPeripheralDriver/src/stm32f10x_flash.c **** @code  
 121:../StdPeripheralDriver/src/stm32f10x_flash.c ****  
 122:../StdPeripheralDriver/src/stm32f10x_flash.c ****  This driver provides functions to configure and program the Flash memory of all STM32F10x devices,
 123:../StdPeripheralDriver/src/stm32f10x_flash.c ****  including the latest STM32F10x_XL density devices. 
 124:../StdPeripheralDriver/src/stm32f10x_flash.c **** 
 125:../StdPeripheralDriver/src/stm32f10x_flash.c ****  STM32F10x_XL devices feature up to 1 Mbyte with dual bank architecture for read-while-write (RWW) 
 126:../StdPeripheralDriver/src/stm32f10x_flash.c ****     - bank1: fixed size of 512 Kbytes (256 pages of 2Kbytes each)
 127:../StdPeripheralDriver/src/stm32f10x_flash.c ****     - bank2: up to 512 Kbytes (up to 256 pages of 2Kbytes each)
 128:../StdPeripheralDriver/src/stm32f10x_flash.c ****  While other STM32F10x devices features only one bank with memory up to 512 Kbytes.
 129:../StdPeripheralDriver/src/stm32f10x_flash.c **** 
 130:../StdPeripheralDriver/src/stm32f10x_flash.c ****  In version V3.3.0, some functions were updated and new ones were added to support
 131:../StdPeripheralDriver/src/stm32f10x_flash.c ****  STM32F10x_XL devices. Thus some functions manages all devices, while other are 
 132:../StdPeripheralDriver/src/stm32f10x_flash.c ****  dedicated for XL devices only.
 133:../StdPeripheralDriver/src/stm32f10x_flash.c ****  
 134:../StdPeripheralDriver/src/stm32f10x_flash.c ****  The table below presents the list of available functions depending on the used STM32F10x devices. 
 135:../StdPeripheralDriver/src/stm32f10x_flash.c ****       
 136:../StdPeripheralDriver/src/stm32f10x_flash.c ****    ***************************************************
 137:../StdPeripheralDriver/src/stm32f10x_flash.c ****    * Legacy functions used for all STM32F10x devices *
 138:../StdPeripheralDriver/src/stm32f10x_flash.c ****    ***************************************************
 139:../StdPeripheralDriver/src/stm32f10x_flash.c ****    +-----------------------------------------------------------------------------------------------
 140:../StdPeripheralDriver/src/stm32f10x_flash.c ****    |       Functions prototypes         |STM32F10x_XL|Other STM32F10x|    Comments                 
 141:../StdPeripheralDriver/src/stm32f10x_flash.c ****    |                                    |   devices  |  devices      |                             
 142:../StdPeripheralDriver/src/stm32f10x_flash.c ****    |-----------------------------------------------------------------------------------------------
 143:../StdPeripheralDriver/src/stm32f10x_flash.c ****    |FLASH_SetLatency                    |    Yes     |      Yes      | No change                   
 144:../StdPeripheralDriver/src/stm32f10x_flash.c ****    |-----------------------------------------------------------------------------------------------
 145:../StdPeripheralDriver/src/stm32f10x_flash.c ****    |FLASH_HalfCycleAccessCmd            |    Yes     |      Yes      | No change                   
 146:../StdPeripheralDriver/src/stm32f10x_flash.c ****    |-----------------------------------------------------------------------------------------------
 147:../StdPeripheralDriver/src/stm32f10x_flash.c ****    |FLASH_PrefetchBufferCmd             |    Yes     |      Yes      | No change                   
 148:../StdPeripheralDriver/src/stm32f10x_flash.c ****    |-----------------------------------------------------------------------------------------------
 149:../StdPeripheralDriver/src/stm32f10x_flash.c ****    |FLASH_Unlock                        |    Yes     |      Yes      | - For STM32F10X_XL devices: 
 150:../StdPeripheralDriver/src/stm32f10x_flash.c ****    |                                    |            |               | - For other devices: unlock 
 151:../StdPeripheralDriver/src/stm32f10x_flash.c ****    |                                    |            |               |   to FLASH_UnlockBank1 funct
 152:../StdPeripheralDriver/src/stm32f10x_flash.c ****    |-----------------------------------------------------------------------------------------------
 153:../StdPeripheralDriver/src/stm32f10x_flash.c ****    |FLASH_Lock                          |    Yes     |      Yes      | - For STM32F10X_XL devices: 
 154:../StdPeripheralDriver/src/stm32f10x_flash.c ****    |                                    |            |               | - For other devices: lock Ba
 155:../StdPeripheralDriver/src/stm32f10x_flash.c ****    |                                    |            |               |   to FLASH_LockBank1 functio
 156:../StdPeripheralDriver/src/stm32f10x_flash.c ****    |-----------------------------------------------------------------------------------------------
 157:../StdPeripheralDriver/src/stm32f10x_flash.c ****    |FLASH_ErasePage                     |    Yes     |      Yes      | - For STM32F10x_XL devices: 
 158:../StdPeripheralDriver/src/stm32f10x_flash.c ****    |                                    |            |               | - For other devices: erase a
 159:../StdPeripheralDriver/src/stm32f10x_flash.c ****    |-----------------------------------------------------------------------------------------------
 160:../StdPeripheralDriver/src/stm32f10x_flash.c ****    |FLASH_EraseAllPages                 |    Yes     |      Yes      | - For STM32F10x_XL devices: 
 161:../StdPeripheralDriver/src/stm32f10x_flash.c ****    |                                    |            |               | - For other devices: erase a
 162:../StdPeripheralDriver/src/stm32f10x_flash.c ****    |-----------------------------------------------------------------------------------------------
 163:../StdPeripheralDriver/src/stm32f10x_flash.c ****    |FLASH_EraseOptionBytes              |    Yes     |      Yes      | No change                   
 164:../StdPeripheralDriver/src/stm32f10x_flash.c ****    |-----------------------------------------------------------------------------------------------
 165:../StdPeripheralDriver/src/stm32f10x_flash.c ****    |FLASH_ProgramWord                   |    Yes     |      Yes      | Updated to program up to 1MB
 166:../StdPeripheralDriver/src/stm32f10x_flash.c ****    |-----------------------------------------------------------------------------------------------
 167:../StdPeripheralDriver/src/stm32f10x_flash.c ****    |FLASH_ProgramHalfWord               |    Yes     |      Yes      | Updated to program up to 1MB
 168:../StdPeripheralDriver/src/stm32f10x_flash.c ****    |-----------------------------------------------------------------------------------------------
 169:../StdPeripheralDriver/src/stm32f10x_flash.c ****    |FLASH_ProgramOptionByteData         |    Yes     |      Yes      | No change                   
 170:../StdPeripheralDriver/src/stm32f10x_flash.c ****    |-----------------------------------------------------------------------------------------------
 171:../StdPeripheralDriver/src/stm32f10x_flash.c ****    |FLASH_EnableWriteProtection         |    Yes     |      Yes      | No change                   
 172:../StdPeripheralDriver/src/stm32f10x_flash.c ****    |-----------------------------------------------------------------------------------------------
 173:../StdPeripheralDriver/src/stm32f10x_flash.c ****    |FLASH_ReadOutProtection             |    Yes     |      Yes      | No change                   
 174:../StdPeripheralDriver/src/stm32f10x_flash.c ****    |-----------------------------------------------------------------------------------------------
 175:../StdPeripheralDriver/src/stm32f10x_flash.c ****    |FLASH_UserOptionByteConfig          |    Yes     |      Yes      | No change                   
 176:../StdPeripheralDriver/src/stm32f10x_flash.c ****    |-----------------------------------------------------------------------------------------------
 177:../StdPeripheralDriver/src/stm32f10x_flash.c ****    |FLASH_GetUserOptionByte             |    Yes     |      Yes      | No change                   
 178:../StdPeripheralDriver/src/stm32f10x_flash.c ****    |-----------------------------------------------------------------------------------------------
 179:../StdPeripheralDriver/src/stm32f10x_flash.c ****    |FLASH_GetWriteProtectionOptionByte  |    Yes     |      Yes      | No change                   
 180:../StdPeripheralDriver/src/stm32f10x_flash.c ****    |-----------------------------------------------------------------------------------------------
 181:../StdPeripheralDriver/src/stm32f10x_flash.c ****    |FLASH_GetReadOutProtectionStatus    |    Yes     |      Yes      | No change                   
 182:../StdPeripheralDriver/src/stm32f10x_flash.c ****    |-----------------------------------------------------------------------------------------------
 183:../StdPeripheralDriver/src/stm32f10x_flash.c ****    |FLASH_GetPrefetchBufferStatus       |    Yes     |      Yes      | No change                   
 184:../StdPeripheralDriver/src/stm32f10x_flash.c ****    |-----------------------------------------------------------------------------------------------
 185:../StdPeripheralDriver/src/stm32f10x_flash.c ****    |FLASH_ITConfig                      |    Yes     |      Yes      | - For STM32F10x_XL devices: 
 186:../StdPeripheralDriver/src/stm32f10x_flash.c ****    |                                    |            |               | - For other devices: enable 
 187:../StdPeripheralDriver/src/stm32f10x_flash.c ****    |-----------------------------------------------------------------------------------------------
 188:../StdPeripheralDriver/src/stm32f10x_flash.c ****    |FLASH_GetFlagStatus                 |    Yes     |      Yes      | - For STM32F10x_XL devices: 
 189:../StdPeripheralDriver/src/stm32f10x_flash.c ****    |                                    |            |               | - For other devices: return 
 190:../StdPeripheralDriver/src/stm32f10x_flash.c ****    |-----------------------------------------------------------------------------------------------
 191:../StdPeripheralDriver/src/stm32f10x_flash.c ****    |FLASH_ClearFlag                     |    Yes     |      Yes      | - For STM32F10x_XL devices: 
 192:../StdPeripheralDriver/src/stm32f10x_flash.c ****    |                                    |            |               | - For other devices: clear B
 193:../StdPeripheralDriver/src/stm32f10x_flash.c ****    |-----------------------------------------------------------------------------------------------
 194:../StdPeripheralDriver/src/stm32f10x_flash.c ****    |FLASH_GetStatus                     |    Yes     |      Yes      | - Return the status of Bank1
 195:../StdPeripheralDriver/src/stm32f10x_flash.c ****    |                                    |            |               |   equivalent to FLASH_GetBan
 196:../StdPeripheralDriver/src/stm32f10x_flash.c ****    |-----------------------------------------------------------------------------------------------
 197:../StdPeripheralDriver/src/stm32f10x_flash.c ****    |FLASH_WaitForLastOperation          |    Yes     |      Yes      | - Wait for Bank1 last operat
 198:../StdPeripheralDriver/src/stm32f10x_flash.c ****    |                                    |            |               |   equivalent to: FLASH_WaitF
 199:../StdPeripheralDriver/src/stm32f10x_flash.c ****    +-----------------------------------------------------------------------------------------------
 200:../StdPeripheralDriver/src/stm32f10x_flash.c **** 
 201:../StdPeripheralDriver/src/stm32f10x_flash.c ****    ************************************************************************************************
 202:../StdPeripheralDriver/src/stm32f10x_flash.c ****    * New functions used for all STM32F10x devices to manage Bank1:                                 
 203:../StdPeripheralDriver/src/stm32f10x_flash.c ****    *   - These functions are mainly useful for STM32F10x_XL density devices, to have separate contr
 204:../StdPeripheralDriver/src/stm32f10x_flash.c ****    *   - For other devices, these functions are optional (covered by functions listed above)       
 205:../StdPeripheralDriver/src/stm32f10x_flash.c ****    ************************************************************************************************
 206:../StdPeripheralDriver/src/stm32f10x_flash.c ****    +-----------------------------------------------------------------------------------------------
 207:../StdPeripheralDriver/src/stm32f10x_flash.c ****    |       Functions prototypes         |STM32F10x_XL|Other STM32F10x|    Comments                 
 208:../StdPeripheralDriver/src/stm32f10x_flash.c ****    |                                    |   devices  |  devices      |                             
 209:../StdPeripheralDriver/src/stm32f10x_flash.c ****    |-----------------------------------------------------------------------------------------------
 210:../StdPeripheralDriver/src/stm32f10x_flash.c ****    | FLASH_UnlockBank1                  |    Yes     |      Yes      | - Unlock Bank1              
 211:../StdPeripheralDriver/src/stm32f10x_flash.c ****    |-----------------------------------------------------------------------------------------------
 212:../StdPeripheralDriver/src/stm32f10x_flash.c ****    |FLASH_LockBank1                     |    Yes     |      Yes      | - Lock Bank1                
 213:../StdPeripheralDriver/src/stm32f10x_flash.c ****    |-----------------------------------------------------------------------------------------------
 214:../StdPeripheralDriver/src/stm32f10x_flash.c ****    | FLASH_EraseAllBank1Pages           |    Yes     |      Yes      | - Erase all pages in Bank1  
 215:../StdPeripheralDriver/src/stm32f10x_flash.c ****    |-----------------------------------------------------------------------------------------------
 216:../StdPeripheralDriver/src/stm32f10x_flash.c ****    | FLASH_GetBank1Status               |    Yes     |      Yes      | - Return the status of Bank1
 217:../StdPeripheralDriver/src/stm32f10x_flash.c ****    |-----------------------------------------------------------------------------------------------
 218:../StdPeripheralDriver/src/stm32f10x_flash.c ****    | FLASH_WaitForLastBank1Operation    |    Yes     |      Yes      | - Wait for Bank1 last operat
 219:../StdPeripheralDriver/src/stm32f10x_flash.c ****    +-----------------------------------------------------------------------------------------------
 220:../StdPeripheralDriver/src/stm32f10x_flash.c **** 
 221:../StdPeripheralDriver/src/stm32f10x_flash.c ****    *****************************************************************************
 222:../StdPeripheralDriver/src/stm32f10x_flash.c ****    * New Functions used only with STM32F10x_XL density devices to manage Bank2 *
 223:../StdPeripheralDriver/src/stm32f10x_flash.c ****    *****************************************************************************
 224:../StdPeripheralDriver/src/stm32f10x_flash.c ****    +-----------------------------------------------------------------------------------------------
 225:../StdPeripheralDriver/src/stm32f10x_flash.c ****    |       Functions prototypes         |STM32F10x_XL|Other STM32F10x|    Comments                 
 226:../StdPeripheralDriver/src/stm32f10x_flash.c ****    |                                    |   devices  |  devices      |                             
 227:../StdPeripheralDriver/src/stm32f10x_flash.c ****    |-----------------------------------------------------------------------------------------------
 228:../StdPeripheralDriver/src/stm32f10x_flash.c ****    | FLASH_UnlockBank2                  |    Yes     |      No       | - Unlock Bank2              
 229:../StdPeripheralDriver/src/stm32f10x_flash.c ****    |-----------------------------------------------------------------------------------------------
 230:../StdPeripheralDriver/src/stm32f10x_flash.c ****    |FLASH_LockBank2                     |    Yes     |      No       | - Lock Bank2                
 231:../StdPeripheralDriver/src/stm32f10x_flash.c ****    |-----------------------------------------------------------------------------------------------
 232:../StdPeripheralDriver/src/stm32f10x_flash.c ****    | FLASH_EraseAllBank2Pages           |    Yes     |      No       | - Erase all pages in Bank2  
 233:../StdPeripheralDriver/src/stm32f10x_flash.c ****    |-----------------------------------------------------------------------------------------------
 234:../StdPeripheralDriver/src/stm32f10x_flash.c ****    | FLASH_GetBank2Status               |    Yes     |      No       | - Return the status of Bank2
 235:../StdPeripheralDriver/src/stm32f10x_flash.c ****    |-----------------------------------------------------------------------------------------------
 236:../StdPeripheralDriver/src/stm32f10x_flash.c ****    | FLASH_WaitForLastBank2Operation    |    Yes     |      No       | - Wait for Bank2 last operat
 237:../StdPeripheralDriver/src/stm32f10x_flash.c ****    |-----------------------------------------------------------------------------------------------
 238:../StdPeripheralDriver/src/stm32f10x_flash.c ****    | FLASH_BootConfig                   |    Yes     |      No       | - Configure to boot from Ban
 239:../StdPeripheralDriver/src/stm32f10x_flash.c ****    +-----------------------------------------------------------------------------------------------
 240:../StdPeripheralDriver/src/stm32f10x_flash.c **** @endcode
 241:../StdPeripheralDriver/src/stm32f10x_flash.c **** */
 242:../StdPeripheralDriver/src/stm32f10x_flash.c **** 
 243:../StdPeripheralDriver/src/stm32f10x_flash.c **** 
 244:../StdPeripheralDriver/src/stm32f10x_flash.c **** /**
 245:../StdPeripheralDriver/src/stm32f10x_flash.c ****   * @brief  Sets the code latency value.
 246:../StdPeripheralDriver/src/stm32f10x_flash.c ****   * @note   This function can be used for all STM32F10x devices.
 247:../StdPeripheralDriver/src/stm32f10x_flash.c ****   * @param  FLASH_Latency: specifies the FLASH Latency value.
 248:../StdPeripheralDriver/src/stm32f10x_flash.c ****   *   This parameter can be one of the following values:
 249:../StdPeripheralDriver/src/stm32f10x_flash.c ****   *     @arg FLASH_Latency_0: FLASH Zero Latency cycle
 250:../StdPeripheralDriver/src/stm32f10x_flash.c ****   *     @arg FLASH_Latency_1: FLASH One Latency cycle
 251:../StdPeripheralDriver/src/stm32f10x_flash.c ****   *     @arg FLASH_Latency_2: FLASH Two Latency cycles
 252:../StdPeripheralDriver/src/stm32f10x_flash.c ****   * @retval None
 253:../StdPeripheralDriver/src/stm32f10x_flash.c ****   */
 254:../StdPeripheralDriver/src/stm32f10x_flash.c **** void FLASH_SetLatency(uint32_t FLASH_Latency)
 255:../StdPeripheralDriver/src/stm32f10x_flash.c **** {
 17999              		.loc 1 255 0
 18000              		.cfi_startproc
 18001              		@ args = 0, pretend = 0, frame = 16
 18002              		@ frame_needed = 1, uses_anonymous_args = 0
 18003              		@ link register save eliminated.
 18004 0000 80B4     		push	{r7}
 18005              	.LCFI0:
 18006              		.cfi_def_cfa_offset 4
 18007 0002 85B0     		sub	sp, sp, #20
 18008              	.LCFI1:
 18009              		.cfi_def_cfa_offset 24
 18010 0004 00AF     		add	r7, sp, #0
 18011              		.cfi_offset 7, -4
 18012              	.LCFI2:
 18013              		.cfi_def_cfa_register 7
 18014 0006 7860     		str	r0, [r7, #4]
 256:../StdPeripheralDriver/src/stm32f10x_flash.c ****   uint32_t tmpreg = 0;
 18015              		.loc 1 256 0
 18016 0008 4FF00003 		mov	r3, #0
 18017 000c FB60     		str	r3, [r7, #12]
 257:../StdPeripheralDriver/src/stm32f10x_flash.c ****   
 258:../StdPeripheralDriver/src/stm32f10x_flash.c ****   /* Check the parameters */
 259:../StdPeripheralDriver/src/stm32f10x_flash.c ****   assert_param(IS_FLASH_LATENCY(FLASH_Latency));
 260:../StdPeripheralDriver/src/stm32f10x_flash.c ****   
 261:../StdPeripheralDriver/src/stm32f10x_flash.c ****   /* Read the ACR register */
 262:../StdPeripheralDriver/src/stm32f10x_flash.c ****   tmpreg = FLASH->ACR;  
 18018              		.loc 1 262 0
 18019 000e 0A4B     		ldr	r3, .L2
 18020 0010 1B68     		ldr	r3, [r3, #0]
 18021 0012 FB60     		str	r3, [r7, #12]
 263:../StdPeripheralDriver/src/stm32f10x_flash.c ****   
 264:../StdPeripheralDriver/src/stm32f10x_flash.c ****   /* Sets the Latency value */
 265:../StdPeripheralDriver/src/stm32f10x_flash.c ****   tmpreg &= ACR_LATENCY_Mask;
 18022              		.loc 1 265 0
 18023 0014 FB68     		ldr	r3, [r7, #12]
 18024 0016 03F03803 		and	r3, r3, #56
 18025 001a FB60     		str	r3, [r7, #12]
 266:../StdPeripheralDriver/src/stm32f10x_flash.c ****   tmpreg |= FLASH_Latency;
 18026              		.loc 1 266 0
 18027 001c FA68     		ldr	r2, [r7, #12]
 18028 001e 7B68     		ldr	r3, [r7, #4]
 18029 0020 42EA0303 		orr	r3, r2, r3
 18030 0024 FB60     		str	r3, [r7, #12]
 267:../StdPeripheralDriver/src/stm32f10x_flash.c ****   
 268:../StdPeripheralDriver/src/stm32f10x_flash.c ****   /* Write the ACR register */
 269:../StdPeripheralDriver/src/stm32f10x_flash.c ****   FLASH->ACR = tmpreg;
 18031              		.loc 1 269 0
 18032 0026 044B     		ldr	r3, .L2
 18033 0028 FA68     		ldr	r2, [r7, #12]
 18034 002a 1A60     		str	r2, [r3, #0]
 270:../StdPeripheralDriver/src/stm32f10x_flash.c **** }
 18035              		.loc 1 270 0
 18036 002c 07F11407 		add	r7, r7, #20
 18037 0030 BD46     		mov	sp, r7
 18038 0032 80BC     		pop	{r7}
 18039 0034 7047     		bx	lr
 18040              	.L3:
 18041 0036 00BF     		.align	2
 18042              	.L2:
 18043 0038 00200240 		.word	1073881088
 18044              		.cfi_endproc
 18045              	.LFE29:
 18047              		.section	.text.FLASH_HalfCycleAccessCmd,"ax",%progbits
 18048              		.align	2
 18049              		.global	FLASH_HalfCycleAccessCmd
 18050              		.thumb
 18051              		.thumb_func
 18053              	FLASH_HalfCycleAccessCmd:
 18054              	.LFB30:
 271:../StdPeripheralDriver/src/stm32f10x_flash.c **** 
 272:../StdPeripheralDriver/src/stm32f10x_flash.c **** /**
 273:../StdPeripheralDriver/src/stm32f10x_flash.c ****   * @brief  Enables or disables the Half cycle flash access.
 274:../StdPeripheralDriver/src/stm32f10x_flash.c ****   * @note   This function can be used for all STM32F10x devices.
 275:../StdPeripheralDriver/src/stm32f10x_flash.c ****   * @param  FLASH_HalfCycleAccess: specifies the FLASH Half cycle Access mode.
 276:../StdPeripheralDriver/src/stm32f10x_flash.c ****   *   This parameter can be one of the following values:
 277:../StdPeripheralDriver/src/stm32f10x_flash.c ****   *     @arg FLASH_HalfCycleAccess_Enable: FLASH Half Cycle Enable
 278:../StdPeripheralDriver/src/stm32f10x_flash.c ****   *     @arg FLASH_HalfCycleAccess_Disable: FLASH Half Cycle Disable
 279:../StdPeripheralDriver/src/stm32f10x_flash.c ****   * @retval None
 280:../StdPeripheralDriver/src/stm32f10x_flash.c ****   */
 281:../StdPeripheralDriver/src/stm32f10x_flash.c **** void FLASH_HalfCycleAccessCmd(uint32_t FLASH_HalfCycleAccess)
 282:../StdPeripheralDriver/src/stm32f10x_flash.c **** {
 18055              		.loc 1 282 0
 18056              		.cfi_startproc
 18057              		@ args = 0, pretend = 0, frame = 8
 18058              		@ frame_needed = 1, uses_anonymous_args = 0
 18059              		@ link register save eliminated.
 18060 0000 80B4     		push	{r7}
 18061              	.LCFI3:
 18062              		.cfi_def_cfa_offset 4
 18063 0002 83B0     		sub	sp, sp, #12
 18064              	.LCFI4:
 18065              		.cfi_def_cfa_offset 16
 18066 0004 00AF     		add	r7, sp, #0
 18067              		.cfi_offset 7, -4
 18068              	.LCFI5:
 18069              		.cfi_def_cfa_register 7
 18070 0006 7860     		str	r0, [r7, #4]
 283:../StdPeripheralDriver/src/stm32f10x_flash.c ****   /* Check the parameters */
 284:../StdPeripheralDriver/src/stm32f10x_flash.c ****   assert_param(IS_FLASH_HALFCYCLEACCESS_STATE(FLASH_HalfCycleAccess));
 285:../StdPeripheralDriver/src/stm32f10x_flash.c ****   
 286:../StdPeripheralDriver/src/stm32f10x_flash.c ****   /* Enable or disable the Half cycle access */
 287:../StdPeripheralDriver/src/stm32f10x_flash.c ****   FLASH->ACR &= ACR_HLFCYA_Mask;
 18071              		.loc 1 287 0
 18072 0008 084B     		ldr	r3, .L5
 18073 000a 084A     		ldr	r2, .L5
 18074 000c 1268     		ldr	r2, [r2, #0]
 18075 000e 22F00802 		bic	r2, r2, #8
 18076 0012 1A60     		str	r2, [r3, #0]
 288:../StdPeripheralDriver/src/stm32f10x_flash.c ****   FLASH->ACR |= FLASH_HalfCycleAccess;
 18077              		.loc 1 288 0
 18078 0014 054B     		ldr	r3, .L5
 18079 0016 054A     		ldr	r2, .L5
 18080 0018 1168     		ldr	r1, [r2, #0]
 18081 001a 7A68     		ldr	r2, [r7, #4]
 18082 001c 41EA0202 		orr	r2, r1, r2
 18083 0020 1A60     		str	r2, [r3, #0]
 289:../StdPeripheralDriver/src/stm32f10x_flash.c **** }
 18084              		.loc 1 289 0
 18085 0022 07F10C07 		add	r7, r7, #12
 18086 0026 BD46     		mov	sp, r7
 18087 0028 80BC     		pop	{r7}
 18088 002a 7047     		bx	lr
 18089              	.L6:
 18090              		.align	2
 18091              	.L5:
 18092 002c 00200240 		.word	1073881088
 18093              		.cfi_endproc
 18094              	.LFE30:
 18096              		.section	.text.FLASH_PrefetchBufferCmd,"ax",%progbits
 18097              		.align	2
 18098              		.global	FLASH_PrefetchBufferCmd
 18099              		.thumb
 18100              		.thumb_func
 18102              	FLASH_PrefetchBufferCmd:
 18103              	.LFB31:
 290:../StdPeripheralDriver/src/stm32f10x_flash.c **** 
 291:../StdPeripheralDriver/src/stm32f10x_flash.c **** /**
 292:../StdPeripheralDriver/src/stm32f10x_flash.c ****   * @brief  Enables or disables the Prefetch Buffer.
 293:../StdPeripheralDriver/src/stm32f10x_flash.c ****   * @note   This function can be used for all STM32F10x devices.
 294:../StdPeripheralDriver/src/stm32f10x_flash.c ****   * @param  FLASH_PrefetchBuffer: specifies the Prefetch buffer status.
 295:../StdPeripheralDriver/src/stm32f10x_flash.c ****   *   This parameter can be one of the following values:
 296:../StdPeripheralDriver/src/stm32f10x_flash.c ****   *     @arg FLASH_PrefetchBuffer_Enable: FLASH Prefetch Buffer Enable
 297:../StdPeripheralDriver/src/stm32f10x_flash.c ****   *     @arg FLASH_PrefetchBuffer_Disable: FLASH Prefetch Buffer Disable
 298:../StdPeripheralDriver/src/stm32f10x_flash.c ****   * @retval None
 299:../StdPeripheralDriver/src/stm32f10x_flash.c ****   */
 300:../StdPeripheralDriver/src/stm32f10x_flash.c **** void FLASH_PrefetchBufferCmd(uint32_t FLASH_PrefetchBuffer)
 301:../StdPeripheralDriver/src/stm32f10x_flash.c **** {
 18104              		.loc 1 301 0
 18105              		.cfi_startproc
 18106              		@ args = 0, pretend = 0, frame = 8
 18107              		@ frame_needed = 1, uses_anonymous_args = 0
 18108              		@ link register save eliminated.
 18109 0000 80B4     		push	{r7}
 18110              	.LCFI6:
 18111              		.cfi_def_cfa_offset 4
 18112 0002 83B0     		sub	sp, sp, #12
 18113              	.LCFI7:
 18114              		.cfi_def_cfa_offset 16
 18115 0004 00AF     		add	r7, sp, #0
 18116              		.cfi_offset 7, -4
 18117              	.LCFI8:
 18118              		.cfi_def_cfa_register 7
 18119 0006 7860     		str	r0, [r7, #4]
 302:../StdPeripheralDriver/src/stm32f10x_flash.c ****   /* Check the parameters */
 303:../StdPeripheralDriver/src/stm32f10x_flash.c ****   assert_param(IS_FLASH_PREFETCHBUFFER_STATE(FLASH_PrefetchBuffer));
 304:../StdPeripheralDriver/src/stm32f10x_flash.c ****   
 305:../StdPeripheralDriver/src/stm32f10x_flash.c ****   /* Enable or disable the Prefetch Buffer */
 306:../StdPeripheralDriver/src/stm32f10x_flash.c ****   FLASH->ACR &= ACR_PRFTBE_Mask;
 18120              		.loc 1 306 0
 18121 0008 084B     		ldr	r3, .L8
 18122 000a 084A     		ldr	r2, .L8
 18123 000c 1268     		ldr	r2, [r2, #0]
 18124 000e 22F01002 		bic	r2, r2, #16
 18125 0012 1A60     		str	r2, [r3, #0]
 307:../StdPeripheralDriver/src/stm32f10x_flash.c ****   FLASH->ACR |= FLASH_PrefetchBuffer;
 18126              		.loc 1 307 0
 18127 0014 054B     		ldr	r3, .L8
 18128 0016 054A     		ldr	r2, .L8
 18129 0018 1168     		ldr	r1, [r2, #0]
 18130 001a 7A68     		ldr	r2, [r7, #4]
 18131 001c 41EA0202 		orr	r2, r1, r2
 18132 0020 1A60     		str	r2, [r3, #0]
 308:../StdPeripheralDriver/src/stm32f10x_flash.c **** }
 18133              		.loc 1 308 0
 18134 0022 07F10C07 		add	r7, r7, #12
 18135 0026 BD46     		mov	sp, r7
 18136 0028 80BC     		pop	{r7}
 18137 002a 7047     		bx	lr
 18138              	.L9:
 18139              		.align	2
 18140              	.L8:
 18141 002c 00200240 		.word	1073881088
 18142              		.cfi_endproc
 18143              	.LFE31:
 18145              		.section	.text.FLASH_Unlock,"ax",%progbits
 18146              		.align	2
 18147              		.global	FLASH_Unlock
 18148              		.thumb
 18149              		.thumb_func
 18151              	FLASH_Unlock:
 18152              	.LFB32:
 309:../StdPeripheralDriver/src/stm32f10x_flash.c **** 
 310:../StdPeripheralDriver/src/stm32f10x_flash.c **** /**
 311:../StdPeripheralDriver/src/stm32f10x_flash.c ****   * @brief  Unlocks the FLASH Program Erase Controller.
 312:../StdPeripheralDriver/src/stm32f10x_flash.c ****   * @note   This function can be used for all STM32F10x devices.
 313:../StdPeripheralDriver/src/stm32f10x_flash.c ****   *         - For STM32F10X_XL devices this function unlocks Bank1 and Bank2.
 314:../StdPeripheralDriver/src/stm32f10x_flash.c ****   *         - For all other devices it unlocks Bank1 and it is equivalent 
 315:../StdPeripheralDriver/src/stm32f10x_flash.c ****   *           to FLASH_UnlockBank1 function.. 
 316:../StdPeripheralDriver/src/stm32f10x_flash.c ****   * @param  None
 317:../StdPeripheralDriver/src/stm32f10x_flash.c ****   * @retval None
 318:../StdPeripheralDriver/src/stm32f10x_flash.c ****   */
 319:../StdPeripheralDriver/src/stm32f10x_flash.c **** void FLASH_Unlock(void)
 320:../StdPeripheralDriver/src/stm32f10x_flash.c **** {
 18153              		.loc 1 320 0
 18154              		.cfi_startproc
 18155              		@ args = 0, pretend = 0, frame = 0
 18156              		@ frame_needed = 1, uses_anonymous_args = 0
 18157              		@ link register save eliminated.
 18158 0000 80B4     		push	{r7}
 18159              	.LCFI9:
 18160              		.cfi_def_cfa_offset 4
 18161 0002 00AF     		add	r7, sp, #0
 18162              		.cfi_offset 7, -4
 18163              	.LCFI10:
 18164              		.cfi_def_cfa_register 7
 321:../StdPeripheralDriver/src/stm32f10x_flash.c ****   /* Authorize the FPEC of Bank1 Access */
 322:../StdPeripheralDriver/src/stm32f10x_flash.c ****   FLASH->KEYR = FLASH_KEY1;
 18165              		.loc 1 322 0
 18166 0004 044B     		ldr	r3, .L11
 18167 0006 054A     		ldr	r2, .L11+4
 18168 0008 5A60     		str	r2, [r3, #4]
 323:../StdPeripheralDriver/src/stm32f10x_flash.c ****   FLASH->KEYR = FLASH_KEY2;
 18169              		.loc 1 323 0
 18170 000a 034B     		ldr	r3, .L11
 18171 000c 044A     		ldr	r2, .L11+8
 18172 000e 5A60     		str	r2, [r3, #4]
 324:../StdPeripheralDriver/src/stm32f10x_flash.c **** 
 325:../StdPeripheralDriver/src/stm32f10x_flash.c **** #ifdef STM32F10X_XL
 326:../StdPeripheralDriver/src/stm32f10x_flash.c ****   /* Authorize the FPEC of Bank2 Access */
 327:../StdPeripheralDriver/src/stm32f10x_flash.c ****   FLASH->KEYR2 = FLASH_KEY1;
 328:../StdPeripheralDriver/src/stm32f10x_flash.c ****   FLASH->KEYR2 = FLASH_KEY2;
 329:../StdPeripheralDriver/src/stm32f10x_flash.c **** #endif /* STM32F10X_XL */
 330:../StdPeripheralDriver/src/stm32f10x_flash.c **** }
 18173              		.loc 1 330 0
 18174 0010 BD46     		mov	sp, r7
 18175 0012 80BC     		pop	{r7}
 18176 0014 7047     		bx	lr
 18177              	.L12:
 18178 0016 00BF     		.align	2
 18179              	.L11:
 18180 0018 00200240 		.word	1073881088
 18181 001c 23016745 		.word	1164378403
 18182 0020 AB89EFCD 		.word	-839939669
 18183              		.cfi_endproc
 18184              	.LFE32:
 18186              		.section	.text.FLASH_UnlockBank1,"ax",%progbits
 18187              		.align	2
 18188              		.global	FLASH_UnlockBank1
 18189              		.thumb
 18190              		.thumb_func
 18192              	FLASH_UnlockBank1:
 18193              	.LFB33:
 331:../StdPeripheralDriver/src/stm32f10x_flash.c **** /**
 332:../StdPeripheralDriver/src/stm32f10x_flash.c ****   * @brief  Unlocks the FLASH Bank1 Program Erase Controller.
 333:../StdPeripheralDriver/src/stm32f10x_flash.c ****   * @note   This function can be used for all STM32F10x devices.
 334:../StdPeripheralDriver/src/stm32f10x_flash.c ****   *         - For STM32F10X_XL devices this function unlocks Bank1.
 335:../StdPeripheralDriver/src/stm32f10x_flash.c ****   *         - For all other devices it unlocks Bank1 and it is 
 336:../StdPeripheralDriver/src/stm32f10x_flash.c ****   *           equivalent to FLASH_Unlock function.
 337:../StdPeripheralDriver/src/stm32f10x_flash.c ****   * @param  None
 338:../StdPeripheralDriver/src/stm32f10x_flash.c ****   * @retval None
 339:../StdPeripheralDriver/src/stm32f10x_flash.c ****   */
 340:../StdPeripheralDriver/src/stm32f10x_flash.c **** void FLASH_UnlockBank1(void)
 341:../StdPeripheralDriver/src/stm32f10x_flash.c **** {
 18194              		.loc 1 341 0
 18195              		.cfi_startproc
 18196              		@ args = 0, pretend = 0, frame = 0
 18197              		@ frame_needed = 1, uses_anonymous_args = 0
 18198              		@ link register save eliminated.
 18199 0000 80B4     		push	{r7}
 18200              	.LCFI11:
 18201              		.cfi_def_cfa_offset 4
 18202 0002 00AF     		add	r7, sp, #0
 18203              		.cfi_offset 7, -4
 18204              	.LCFI12:
 18205              		.cfi_def_cfa_register 7
 342:../StdPeripheralDriver/src/stm32f10x_flash.c ****   /* Authorize the FPEC of Bank1 Access */
 343:../StdPeripheralDriver/src/stm32f10x_flash.c ****   FLASH->KEYR = FLASH_KEY1;
 18206              		.loc 1 343 0
 18207 0004 044B     		ldr	r3, .L14
 18208 0006 054A     		ldr	r2, .L14+4
 18209 0008 5A60     		str	r2, [r3, #4]
 344:../StdPeripheralDriver/src/stm32f10x_flash.c ****   FLASH->KEYR = FLASH_KEY2;
 18210              		.loc 1 344 0
 18211 000a 034B     		ldr	r3, .L14
 18212 000c 044A     		ldr	r2, .L14+8
 18213 000e 5A60     		str	r2, [r3, #4]
 345:../StdPeripheralDriver/src/stm32f10x_flash.c **** }
 18214              		.loc 1 345 0
 18215 0010 BD46     		mov	sp, r7
 18216 0012 80BC     		pop	{r7}
 18217 0014 7047     		bx	lr
 18218              	.L15:
 18219 0016 00BF     		.align	2
 18220              	.L14:
 18221 0018 00200240 		.word	1073881088
 18222 001c 23016745 		.word	1164378403
 18223 0020 AB89EFCD 		.word	-839939669
 18224              		.cfi_endproc
 18225              	.LFE33:
 18227              		.section	.text.FLASH_Lock,"ax",%progbits
 18228              		.align	2
 18229              		.global	FLASH_Lock
 18230              		.thumb
 18231              		.thumb_func
 18233              	FLASH_Lock:
 18234              	.LFB34:
 346:../StdPeripheralDriver/src/stm32f10x_flash.c **** 
 347:../StdPeripheralDriver/src/stm32f10x_flash.c **** #ifdef STM32F10X_XL
 348:../StdPeripheralDriver/src/stm32f10x_flash.c **** /**
 349:../StdPeripheralDriver/src/stm32f10x_flash.c ****   * @brief  Unlocks the FLASH Bank2 Program Erase Controller.
 350:../StdPeripheralDriver/src/stm32f10x_flash.c ****   * @note   This function can be used only for STM32F10X_XL density devices.
 351:../StdPeripheralDriver/src/stm32f10x_flash.c ****   * @param  None
 352:../StdPeripheralDriver/src/stm32f10x_flash.c ****   * @retval None
 353:../StdPeripheralDriver/src/stm32f10x_flash.c ****   */
 354:../StdPeripheralDriver/src/stm32f10x_flash.c **** void FLASH_UnlockBank2(void)
 355:../StdPeripheralDriver/src/stm32f10x_flash.c **** {
 356:../StdPeripheralDriver/src/stm32f10x_flash.c ****   /* Authorize the FPEC of Bank2 Access */
 357:../StdPeripheralDriver/src/stm32f10x_flash.c ****   FLASH->KEYR2 = FLASH_KEY1;
 358:../StdPeripheralDriver/src/stm32f10x_flash.c ****   FLASH->KEYR2 = FLASH_KEY2;
 359:../StdPeripheralDriver/src/stm32f10x_flash.c **** 
 360:../StdPeripheralDriver/src/stm32f10x_flash.c **** }
 361:../StdPeripheralDriver/src/stm32f10x_flash.c **** #endif /* STM32F10X_XL */
 362:../StdPeripheralDriver/src/stm32f10x_flash.c **** 
 363:../StdPeripheralDriver/src/stm32f10x_flash.c **** /**
 364:../StdPeripheralDriver/src/stm32f10x_flash.c ****   * @brief  Locks the FLASH Program Erase Controller.
 365:../StdPeripheralDriver/src/stm32f10x_flash.c ****   * @note   This function can be used for all STM32F10x devices.
 366:../StdPeripheralDriver/src/stm32f10x_flash.c ****   *         - For STM32F10X_XL devices this function Locks Bank1 and Bank2.
 367:../StdPeripheralDriver/src/stm32f10x_flash.c ****   *         - For all other devices it Locks Bank1 and it is equivalent 
 368:../StdPeripheralDriver/src/stm32f10x_flash.c ****   *           to FLASH_LockBank1 function.
 369:../StdPeripheralDriver/src/stm32f10x_flash.c ****   * @param  None
 370:../StdPeripheralDriver/src/stm32f10x_flash.c ****   * @retval None
 371:../StdPeripheralDriver/src/stm32f10x_flash.c ****   */
 372:../StdPeripheralDriver/src/stm32f10x_flash.c **** void FLASH_Lock(void)
 373:../StdPeripheralDriver/src/stm32f10x_flash.c **** {
 18235              		.loc 1 373 0
 18236              		.cfi_startproc
 18237              		@ args = 0, pretend = 0, frame = 0
 18238              		@ frame_needed = 1, uses_anonymous_args = 0
 18239              		@ link register save eliminated.
 18240 0000 80B4     		push	{r7}
 18241              	.LCFI13:
 18242              		.cfi_def_cfa_offset 4
 18243 0002 00AF     		add	r7, sp, #0
 18244              		.cfi_offset 7, -4
 18245              	.LCFI14:
 18246              		.cfi_def_cfa_register 7
 374:../StdPeripheralDriver/src/stm32f10x_flash.c ****   /* Set the Lock Bit to lock the FPEC and the CR of  Bank1 */
 375:../StdPeripheralDriver/src/stm32f10x_flash.c ****   FLASH->CR |= CR_LOCK_Set;
 18247              		.loc 1 375 0
 18248 0004 044B     		ldr	r3, .L17
 18249 0006 044A     		ldr	r2, .L17
 18250 0008 1269     		ldr	r2, [r2, #16]
 18251 000a 42F08002 		orr	r2, r2, #128
 18252 000e 1A61     		str	r2, [r3, #16]
 376:../StdPeripheralDriver/src/stm32f10x_flash.c **** 
 377:../StdPeripheralDriver/src/stm32f10x_flash.c **** #ifdef STM32F10X_XL
 378:../StdPeripheralDriver/src/stm32f10x_flash.c ****   /* Set the Lock Bit to lock the FPEC and the CR of  Bank2 */
 379:../StdPeripheralDriver/src/stm32f10x_flash.c ****   FLASH->CR2 |= CR_LOCK_Set;
 380:../StdPeripheralDriver/src/stm32f10x_flash.c **** #endif /* STM32F10X_XL */
 381:../StdPeripheralDriver/src/stm32f10x_flash.c **** }
 18253              		.loc 1 381 0
 18254 0010 BD46     		mov	sp, r7
 18255 0012 80BC     		pop	{r7}
 18256 0014 7047     		bx	lr
 18257              	.L18:
 18258 0016 00BF     		.align	2
 18259              	.L17:
 18260 0018 00200240 		.word	1073881088
 18261              		.cfi_endproc
 18262              	.LFE34:
 18264              		.section	.text.FLASH_LockBank1,"ax",%progbits
 18265              		.align	2
 18266              		.global	FLASH_LockBank1
 18267              		.thumb
 18268              		.thumb_func
 18270              	FLASH_LockBank1:
 18271              	.LFB35:
 382:../StdPeripheralDriver/src/stm32f10x_flash.c **** 
 383:../StdPeripheralDriver/src/stm32f10x_flash.c **** /**
 384:../StdPeripheralDriver/src/stm32f10x_flash.c ****   * @brief  Locks the FLASH Bank1 Program Erase Controller.
 385:../StdPeripheralDriver/src/stm32f10x_flash.c ****   * @note   this function can be used for all STM32F10x devices.
 386:../StdPeripheralDriver/src/stm32f10x_flash.c ****   *         - For STM32F10X_XL devices this function Locks Bank1.
 387:../StdPeripheralDriver/src/stm32f10x_flash.c ****   *         - For all other devices it Locks Bank1 and it is equivalent 
 388:../StdPeripheralDriver/src/stm32f10x_flash.c ****   *           to FLASH_Lock function.
 389:../StdPeripheralDriver/src/stm32f10x_flash.c ****   * @param  None
 390:../StdPeripheralDriver/src/stm32f10x_flash.c ****   * @retval None
 391:../StdPeripheralDriver/src/stm32f10x_flash.c ****   */
 392:../StdPeripheralDriver/src/stm32f10x_flash.c **** void FLASH_LockBank1(void)
 393:../StdPeripheralDriver/src/stm32f10x_flash.c **** {
 18272              		.loc 1 393 0
 18273              		.cfi_startproc
 18274              		@ args = 0, pretend = 0, frame = 0
 18275              		@ frame_needed = 1, uses_anonymous_args = 0
 18276              		@ link register save eliminated.
 18277 0000 80B4     		push	{r7}
 18278              	.LCFI15:
 18279              		.cfi_def_cfa_offset 4
 18280 0002 00AF     		add	r7, sp, #0
 18281              		.cfi_offset 7, -4
 18282              	.LCFI16:
 18283              		.cfi_def_cfa_register 7
 394:../StdPeripheralDriver/src/stm32f10x_flash.c ****   /* Set the Lock Bit to lock the FPEC and the CR of  Bank1 */
 395:../StdPeripheralDriver/src/stm32f10x_flash.c ****   FLASH->CR |= CR_LOCK_Set;
 18284              		.loc 1 395 0
 18285 0004 044B     		ldr	r3, .L20
 18286 0006 044A     		ldr	r2, .L20
 18287 0008 1269     		ldr	r2, [r2, #16]
 18288 000a 42F08002 		orr	r2, r2, #128
 18289 000e 1A61     		str	r2, [r3, #16]
 396:../StdPeripheralDriver/src/stm32f10x_flash.c **** }
 18290              		.loc 1 396 0
 18291 0010 BD46     		mov	sp, r7
 18292 0012 80BC     		pop	{r7}
 18293 0014 7047     		bx	lr
 18294              	.L21:
 18295 0016 00BF     		.align	2
 18296              	.L20:
 18297 0018 00200240 		.word	1073881088
 18298              		.cfi_endproc
 18299              	.LFE35:
 18301              		.section	.text.FLASH_ErasePage,"ax",%progbits
 18302              		.align	2
 18303              		.global	FLASH_ErasePage
 18304              		.thumb
 18305              		.thumb_func
 18307              	FLASH_ErasePage:
 18308              	.LFB36:
 397:../StdPeripheralDriver/src/stm32f10x_flash.c **** 
 398:../StdPeripheralDriver/src/stm32f10x_flash.c **** #ifdef STM32F10X_XL
 399:../StdPeripheralDriver/src/stm32f10x_flash.c **** /**
 400:../StdPeripheralDriver/src/stm32f10x_flash.c ****   * @brief  Locks the FLASH Bank2 Program Erase Controller.
 401:../StdPeripheralDriver/src/stm32f10x_flash.c ****   * @note   This function can be used only for STM32F10X_XL density devices.
 402:../StdPeripheralDriver/src/stm32f10x_flash.c ****   * @param  None
 403:../StdPeripheralDriver/src/stm32f10x_flash.c ****   * @retval None
 404:../StdPeripheralDriver/src/stm32f10x_flash.c ****   */
 405:../StdPeripheralDriver/src/stm32f10x_flash.c **** void FLASH_LockBank2(void)
 406:../StdPeripheralDriver/src/stm32f10x_flash.c **** {
 407:../StdPeripheralDriver/src/stm32f10x_flash.c ****   /* Set the Lock Bit to lock the FPEC and the CR of  Bank2 */
 408:../StdPeripheralDriver/src/stm32f10x_flash.c ****   FLASH->CR2 |= CR_LOCK_Set;
 409:../StdPeripheralDriver/src/stm32f10x_flash.c **** }
 410:../StdPeripheralDriver/src/stm32f10x_flash.c **** #endif /* STM32F10X_XL */
 411:../StdPeripheralDriver/src/stm32f10x_flash.c **** 
 412:../StdPeripheralDriver/src/stm32f10x_flash.c **** /**
 413:../StdPeripheralDriver/src/stm32f10x_flash.c ****   * @brief  Erases a specified FLASH page.
 414:../StdPeripheralDriver/src/stm32f10x_flash.c ****   * @note   This function can be used for all STM32F10x devices.
 415:../StdPeripheralDriver/src/stm32f10x_flash.c ****   * @param  Page_Address: The page address to be erased.
 416:../StdPeripheralDriver/src/stm32f10x_flash.c ****   * @retval FLASH Status: The returned value can be: FLASH_BUSY, FLASH_ERROR_PG,
 417:../StdPeripheralDriver/src/stm32f10x_flash.c ****   *         FLASH_ERROR_WRP, FLASH_COMPLETE or FLASH_TIMEOUT.
 418:../StdPeripheralDriver/src/stm32f10x_flash.c ****   */
 419:../StdPeripheralDriver/src/stm32f10x_flash.c **** FLASH_Status FLASH_ErasePage(uint32_t Page_Address)
 420:../StdPeripheralDriver/src/stm32f10x_flash.c **** {
 18309              		.loc 1 420 0
 18310              		.cfi_startproc
 18311              		@ args = 0, pretend = 0, frame = 16
 18312              		@ frame_needed = 1, uses_anonymous_args = 0
 18313 0000 80B5     		push	{r7, lr}
 18314              	.LCFI17:
 18315              		.cfi_def_cfa_offset 8
 18316 0002 84B0     		sub	sp, sp, #16
 18317              	.LCFI18:
 18318              		.cfi_def_cfa_offset 24
 18319 0004 00AF     		add	r7, sp, #0
 18320              		.cfi_offset 14, -4
 18321              		.cfi_offset 7, -8
 18322              	.LCFI19:
 18323              		.cfi_def_cfa_register 7
 18324 0006 7860     		str	r0, [r7, #4]
 421:../StdPeripheralDriver/src/stm32f10x_flash.c ****   FLASH_Status status = FLASH_COMPLETE;
 18325              		.loc 1 421 0
 18326 0008 4FF00403 		mov	r3, #4
 18327 000c FB73     		strb	r3, [r7, #15]
 422:../StdPeripheralDriver/src/stm32f10x_flash.c ****   /* Check the parameters */
 423:../StdPeripheralDriver/src/stm32f10x_flash.c ****   assert_param(IS_FLASH_ADDRESS(Page_Address));
 424:../StdPeripheralDriver/src/stm32f10x_flash.c **** 
 425:../StdPeripheralDriver/src/stm32f10x_flash.c **** #ifdef STM32F10X_XL
 426:../StdPeripheralDriver/src/stm32f10x_flash.c ****   if(Page_Address < FLASH_BANK1_END_ADDRESS)  
 427:../StdPeripheralDriver/src/stm32f10x_flash.c ****   {
 428:../StdPeripheralDriver/src/stm32f10x_flash.c ****     /* Wait for last operation to be completed */
 429:../StdPeripheralDriver/src/stm32f10x_flash.c ****     status = FLASH_WaitForLastBank1Operation(EraseTimeout);
 430:../StdPeripheralDriver/src/stm32f10x_flash.c ****     if(status == FLASH_COMPLETE)
 431:../StdPeripheralDriver/src/stm32f10x_flash.c ****     { 
 432:../StdPeripheralDriver/src/stm32f10x_flash.c ****       /* if the previous operation is completed, proceed to erase the page */
 433:../StdPeripheralDriver/src/stm32f10x_flash.c ****       FLASH->CR|= CR_PER_Set;
 434:../StdPeripheralDriver/src/stm32f10x_flash.c ****       FLASH->AR = Page_Address; 
 435:../StdPeripheralDriver/src/stm32f10x_flash.c ****       FLASH->CR|= CR_STRT_Set;
 436:../StdPeripheralDriver/src/stm32f10x_flash.c ****     
 437:../StdPeripheralDriver/src/stm32f10x_flash.c ****       /* Wait for last operation to be completed */
 438:../StdPeripheralDriver/src/stm32f10x_flash.c ****       status = FLASH_WaitForLastBank1Operation(EraseTimeout);
 439:../StdPeripheralDriver/src/stm32f10x_flash.c **** 
 440:../StdPeripheralDriver/src/stm32f10x_flash.c ****       /* Disable the PER Bit */
 441:../StdPeripheralDriver/src/stm32f10x_flash.c ****       FLASH->CR &= CR_PER_Reset;
 442:../StdPeripheralDriver/src/stm32f10x_flash.c ****     }
 443:../StdPeripheralDriver/src/stm32f10x_flash.c ****   }
 444:../StdPeripheralDriver/src/stm32f10x_flash.c ****   else
 445:../StdPeripheralDriver/src/stm32f10x_flash.c ****   {
 446:../StdPeripheralDriver/src/stm32f10x_flash.c ****     /* Wait for last operation to be completed */
 447:../StdPeripheralDriver/src/stm32f10x_flash.c ****     status = FLASH_WaitForLastBank2Operation(EraseTimeout);
 448:../StdPeripheralDriver/src/stm32f10x_flash.c ****     if(status == FLASH_COMPLETE)
 449:../StdPeripheralDriver/src/stm32f10x_flash.c ****     { 
 450:../StdPeripheralDriver/src/stm32f10x_flash.c ****       /* if the previous operation is completed, proceed to erase the page */
 451:../StdPeripheralDriver/src/stm32f10x_flash.c ****       FLASH->CR2|= CR_PER_Set;
 452:../StdPeripheralDriver/src/stm32f10x_flash.c ****       FLASH->AR2 = Page_Address; 
 453:../StdPeripheralDriver/src/stm32f10x_flash.c ****       FLASH->CR2|= CR_STRT_Set;
 454:../StdPeripheralDriver/src/stm32f10x_flash.c ****     
 455:../StdPeripheralDriver/src/stm32f10x_flash.c ****       /* Wait for last operation to be completed */
 456:../StdPeripheralDriver/src/stm32f10x_flash.c ****       status = FLASH_WaitForLastBank2Operation(EraseTimeout);
 457:../StdPeripheralDriver/src/stm32f10x_flash.c ****       
 458:../StdPeripheralDriver/src/stm32f10x_flash.c ****       /* Disable the PER Bit */
 459:../StdPeripheralDriver/src/stm32f10x_flash.c ****       FLASH->CR2 &= CR_PER_Reset;
 460:../StdPeripheralDriver/src/stm32f10x_flash.c ****     }
 461:../StdPeripheralDriver/src/stm32f10x_flash.c ****   }
 462:../StdPeripheralDriver/src/stm32f10x_flash.c **** #else
 463:../StdPeripheralDriver/src/stm32f10x_flash.c ****   /* Wait for last operation to be completed */
 464:../StdPeripheralDriver/src/stm32f10x_flash.c ****   status = FLASH_WaitForLastOperation(EraseTimeout);
 18328              		.loc 1 464 0
 18329 000e 4FF43020 		mov	r0, #720896
 18330 0012 FFF7FEFF 		bl	FLASH_WaitForLastOperation
 18331 0016 0346     		mov	r3, r0
 18332 0018 FB73     		strb	r3, [r7, #15]
 465:../StdPeripheralDriver/src/stm32f10x_flash.c ****   
 466:../StdPeripheralDriver/src/stm32f10x_flash.c ****   if(status == FLASH_COMPLETE)
 18333              		.loc 1 466 0
 18334 001a FB7B     		ldrb	r3, [r7, #15]	@ zero_extendqisi2
 18335 001c 042B     		cmp	r3, #4
 18336 001e 1CD1     		bne	.L23
 467:../StdPeripheralDriver/src/stm32f10x_flash.c ****   { 
 468:../StdPeripheralDriver/src/stm32f10x_flash.c ****     /* if the previous operation is completed, proceed to erase the page */
 469:../StdPeripheralDriver/src/stm32f10x_flash.c ****     FLASH->CR|= CR_PER_Set;
 18337              		.loc 1 469 0
 18338 0020 114B     		ldr	r3, .L24
 18339 0022 114A     		ldr	r2, .L24
 18340 0024 1269     		ldr	r2, [r2, #16]
 18341 0026 42F00202 		orr	r2, r2, #2
 18342 002a 1A61     		str	r2, [r3, #16]
 470:../StdPeripheralDriver/src/stm32f10x_flash.c ****     FLASH->AR = Page_Address; 
 18343              		.loc 1 470 0
 18344 002c 0E4B     		ldr	r3, .L24
 18345 002e 7A68     		ldr	r2, [r7, #4]
 18346 0030 5A61     		str	r2, [r3, #20]
 471:../StdPeripheralDriver/src/stm32f10x_flash.c ****     FLASH->CR|= CR_STRT_Set;
 18347              		.loc 1 471 0
 18348 0032 0D4B     		ldr	r3, .L24
 18349 0034 0C4A     		ldr	r2, .L24
 18350 0036 1269     		ldr	r2, [r2, #16]
 18351 0038 42F04002 		orr	r2, r2, #64
 18352 003c 1A61     		str	r2, [r3, #16]
 472:../StdPeripheralDriver/src/stm32f10x_flash.c ****     
 473:../StdPeripheralDriver/src/stm32f10x_flash.c ****     /* Wait for last operation to be completed */
 474:../StdPeripheralDriver/src/stm32f10x_flash.c ****     status = FLASH_WaitForLastOperation(EraseTimeout);
 18353              		.loc 1 474 0
 18354 003e 4FF43020 		mov	r0, #720896
 18355 0042 FFF7FEFF 		bl	FLASH_WaitForLastOperation
 18356 0046 0346     		mov	r3, r0
 18357 0048 FB73     		strb	r3, [r7, #15]
 475:../StdPeripheralDriver/src/stm32f10x_flash.c ****     
 476:../StdPeripheralDriver/src/stm32f10x_flash.c ****     /* Disable the PER Bit */
 477:../StdPeripheralDriver/src/stm32f10x_flash.c ****     FLASH->CR &= CR_PER_Reset;
 18358              		.loc 1 477 0
 18359 004a 074A     		ldr	r2, .L24
 18360 004c 064B     		ldr	r3, .L24
 18361 004e 1969     		ldr	r1, [r3, #16]
 18362 0050 41F6FD73 		movw	r3, #8189
 18363 0054 01EA0303 		and	r3, r1, r3
 18364 0058 1361     		str	r3, [r2, #16]
 18365              	.L23:
 478:../StdPeripheralDriver/src/stm32f10x_flash.c ****   }
 479:../StdPeripheralDriver/src/stm32f10x_flash.c **** #endif /* STM32F10X_XL */
 480:../StdPeripheralDriver/src/stm32f10x_flash.c **** 
 481:../StdPeripheralDriver/src/stm32f10x_flash.c ****   /* Return the Erase Status */
 482:../StdPeripheralDriver/src/stm32f10x_flash.c ****   return status;
 18366              		.loc 1 482 0
 18367 005a FB7B     		ldrb	r3, [r7, #15]	@ zero_extendqisi2
 483:../StdPeripheralDriver/src/stm32f10x_flash.c **** }
 18368              		.loc 1 483 0
 18369 005c 1846     		mov	r0, r3
 18370 005e 07F11007 		add	r7, r7, #16
 18371 0062 BD46     		mov	sp, r7
 18372 0064 80BD     		pop	{r7, pc}
 18373              	.L25:
 18374 0066 00BF     		.align	2
 18375              	.L24:
 18376 0068 00200240 		.word	1073881088
 18377              		.cfi_endproc
 18378              	.LFE36:
 18380              		.section	.text.FLASH_EraseAllPages,"ax",%progbits
 18381              		.align	2
 18382              		.global	FLASH_EraseAllPages
 18383              		.thumb
 18384              		.thumb_func
 18386              	FLASH_EraseAllPages:
 18387              	.LFB37:
 484:../StdPeripheralDriver/src/stm32f10x_flash.c **** 
 485:../StdPeripheralDriver/src/stm32f10x_flash.c **** /**
 486:../StdPeripheralDriver/src/stm32f10x_flash.c ****   * @brief  Erases all FLASH pages.
 487:../StdPeripheralDriver/src/stm32f10x_flash.c ****   * @note   This function can be used for all STM32F10x devices.
 488:../StdPeripheralDriver/src/stm32f10x_flash.c ****   * @param  None
 489:../StdPeripheralDriver/src/stm32f10x_flash.c ****   * @retval FLASH Status: The returned value can be: FLASH_ERROR_PG,
 490:../StdPeripheralDriver/src/stm32f10x_flash.c ****   *         FLASH_ERROR_WRP, FLASH_COMPLETE or FLASH_TIMEOUT.
 491:../StdPeripheralDriver/src/stm32f10x_flash.c ****   */
 492:../StdPeripheralDriver/src/stm32f10x_flash.c **** FLASH_Status FLASH_EraseAllPages(void)
 493:../StdPeripheralDriver/src/stm32f10x_flash.c **** {
 18388              		.loc 1 493 0
 18389              		.cfi_startproc
 18390              		@ args = 0, pretend = 0, frame = 8
 18391              		@ frame_needed = 1, uses_anonymous_args = 0
 18392 0000 80B5     		push	{r7, lr}
 18393              	.LCFI20:
 18394              		.cfi_def_cfa_offset 8
 18395 0002 82B0     		sub	sp, sp, #8
 18396              	.LCFI21:
 18397              		.cfi_def_cfa_offset 16
 18398 0004 00AF     		add	r7, sp, #0
 18399              		.cfi_offset 14, -4
 18400              		.cfi_offset 7, -8
 18401              	.LCFI22:
 18402              		.cfi_def_cfa_register 7
 494:../StdPeripheralDriver/src/stm32f10x_flash.c ****   FLASH_Status status = FLASH_COMPLETE;
 18403              		.loc 1 494 0
 18404 0006 4FF00403 		mov	r3, #4
 18405 000a FB71     		strb	r3, [r7, #7]
 495:../StdPeripheralDriver/src/stm32f10x_flash.c **** 
 496:../StdPeripheralDriver/src/stm32f10x_flash.c **** #ifdef STM32F10X_XL
 497:../StdPeripheralDriver/src/stm32f10x_flash.c ****   /* Wait for last operation to be completed */
 498:../StdPeripheralDriver/src/stm32f10x_flash.c ****   status = FLASH_WaitForLastBank1Operation(EraseTimeout);
 499:../StdPeripheralDriver/src/stm32f10x_flash.c ****   
 500:../StdPeripheralDriver/src/stm32f10x_flash.c ****   if(status == FLASH_COMPLETE)
 501:../StdPeripheralDriver/src/stm32f10x_flash.c ****   {
 502:../StdPeripheralDriver/src/stm32f10x_flash.c ****     /* if the previous operation is completed, proceed to erase all pages */
 503:../StdPeripheralDriver/src/stm32f10x_flash.c ****      FLASH->CR |= CR_MER_Set;
 504:../StdPeripheralDriver/src/stm32f10x_flash.c ****      FLASH->CR |= CR_STRT_Set;
 505:../StdPeripheralDriver/src/stm32f10x_flash.c ****     
 506:../StdPeripheralDriver/src/stm32f10x_flash.c ****     /* Wait for last operation to be completed */
 507:../StdPeripheralDriver/src/stm32f10x_flash.c ****     status = FLASH_WaitForLastBank1Operation(EraseTimeout);
 508:../StdPeripheralDriver/src/stm32f10x_flash.c ****     
 509:../StdPeripheralDriver/src/stm32f10x_flash.c ****     /* Disable the MER Bit */
 510:../StdPeripheralDriver/src/stm32f10x_flash.c ****     FLASH->CR &= CR_MER_Reset;
 511:../StdPeripheralDriver/src/stm32f10x_flash.c ****   }    
 512:../StdPeripheralDriver/src/stm32f10x_flash.c ****   if(status == FLASH_COMPLETE)
 513:../StdPeripheralDriver/src/stm32f10x_flash.c ****   {
 514:../StdPeripheralDriver/src/stm32f10x_flash.c ****     /* if the previous operation is completed, proceed to erase all pages */
 515:../StdPeripheralDriver/src/stm32f10x_flash.c ****      FLASH->CR2 |= CR_MER_Set;
 516:../StdPeripheralDriver/src/stm32f10x_flash.c ****      FLASH->CR2 |= CR_STRT_Set;
 517:../StdPeripheralDriver/src/stm32f10x_flash.c ****     
 518:../StdPeripheralDriver/src/stm32f10x_flash.c ****     /* Wait for last operation to be completed */
 519:../StdPeripheralDriver/src/stm32f10x_flash.c ****     status = FLASH_WaitForLastBank2Operation(EraseTimeout);
 520:../StdPeripheralDriver/src/stm32f10x_flash.c ****     
 521:../StdPeripheralDriver/src/stm32f10x_flash.c ****     /* Disable the MER Bit */
 522:../StdPeripheralDriver/src/stm32f10x_flash.c ****     FLASH->CR2 &= CR_MER_Reset;
 523:../StdPeripheralDriver/src/stm32f10x_flash.c ****   }
 524:../StdPeripheralDriver/src/stm32f10x_flash.c **** #else
 525:../StdPeripheralDriver/src/stm32f10x_flash.c ****   /* Wait for last operation to be completed */
 526:../StdPeripheralDriver/src/stm32f10x_flash.c ****   status = FLASH_WaitForLastOperation(EraseTimeout);
 18406              		.loc 1 526 0
 18407 000c 4FF43020 		mov	r0, #720896
 18408 0010 FFF7FEFF 		bl	FLASH_WaitForLastOperation
 18409 0014 0346     		mov	r3, r0
 18410 0016 FB71     		strb	r3, [r7, #7]
 527:../StdPeripheralDriver/src/stm32f10x_flash.c ****   if(status == FLASH_COMPLETE)
 18411              		.loc 1 527 0
 18412 0018 FB79     		ldrb	r3, [r7, #7]	@ zero_extendqisi2
 18413 001a 042B     		cmp	r3, #4
 18414 001c 19D1     		bne	.L27
 528:../StdPeripheralDriver/src/stm32f10x_flash.c ****   {
 529:../StdPeripheralDriver/src/stm32f10x_flash.c ****     /* if the previous operation is completed, proceed to erase all pages */
 530:../StdPeripheralDriver/src/stm32f10x_flash.c ****      FLASH->CR |= CR_MER_Set;
 18415              		.loc 1 530 0
 18416 001e 104B     		ldr	r3, .L28
 18417 0020 0F4A     		ldr	r2, .L28
 18418 0022 1269     		ldr	r2, [r2, #16]
 18419 0024 42F00402 		orr	r2, r2, #4
 18420 0028 1A61     		str	r2, [r3, #16]
 531:../StdPeripheralDriver/src/stm32f10x_flash.c ****      FLASH->CR |= CR_STRT_Set;
 18421              		.loc 1 531 0
 18422 002a 0D4B     		ldr	r3, .L28
 18423 002c 0C4A     		ldr	r2, .L28
 18424 002e 1269     		ldr	r2, [r2, #16]
 18425 0030 42F04002 		orr	r2, r2, #64
 18426 0034 1A61     		str	r2, [r3, #16]
 532:../StdPeripheralDriver/src/stm32f10x_flash.c ****     
 533:../StdPeripheralDriver/src/stm32f10x_flash.c ****     /* Wait for last operation to be completed */
 534:../StdPeripheralDriver/src/stm32f10x_flash.c ****     status = FLASH_WaitForLastOperation(EraseTimeout);
 18427              		.loc 1 534 0
 18428 0036 4FF43020 		mov	r0, #720896
 18429 003a FFF7FEFF 		bl	FLASH_WaitForLastOperation
 18430 003e 0346     		mov	r3, r0
 18431 0040 FB71     		strb	r3, [r7, #7]
 535:../StdPeripheralDriver/src/stm32f10x_flash.c **** 
 536:../StdPeripheralDriver/src/stm32f10x_flash.c ****     /* Disable the MER Bit */
 537:../StdPeripheralDriver/src/stm32f10x_flash.c ****     FLASH->CR &= CR_MER_Reset;
 18432              		.loc 1 537 0
 18433 0042 074A     		ldr	r2, .L28
 18434 0044 064B     		ldr	r3, .L28
 18435 0046 1969     		ldr	r1, [r3, #16]
 18436 0048 41F6FB73 		movw	r3, #8187
 18437 004c 01EA0303 		and	r3, r1, r3
 18438 0050 1361     		str	r3, [r2, #16]
 18439              	.L27:
 538:../StdPeripheralDriver/src/stm32f10x_flash.c ****   }
 539:../StdPeripheralDriver/src/stm32f10x_flash.c **** #endif /* STM32F10X_XL */
 540:../StdPeripheralDriver/src/stm32f10x_flash.c **** 
 541:../StdPeripheralDriver/src/stm32f10x_flash.c ****   /* Return the Erase Status */
 542:../StdPeripheralDriver/src/stm32f10x_flash.c ****   return status;
 18440              		.loc 1 542 0
 18441 0052 FB79     		ldrb	r3, [r7, #7]	@ zero_extendqisi2
 543:../StdPeripheralDriver/src/stm32f10x_flash.c **** }
 18442              		.loc 1 543 0
 18443 0054 1846     		mov	r0, r3
 18444 0056 07F10807 		add	r7, r7, #8
 18445 005a BD46     		mov	sp, r7
 18446 005c 80BD     		pop	{r7, pc}
 18447              	.L29:
 18448 005e 00BF     		.align	2
 18449              	.L28:
 18450 0060 00200240 		.word	1073881088
 18451              		.cfi_endproc
 18452              	.LFE37:
 18454              		.section	.text.FLASH_EraseAllBank1Pages,"ax",%progbits
 18455              		.align	2
 18456              		.global	FLASH_EraseAllBank1Pages
 18457              		.thumb
 18458              		.thumb_func
 18460              	FLASH_EraseAllBank1Pages:
 18461              	.LFB38:
 544:../StdPeripheralDriver/src/stm32f10x_flash.c **** 
 545:../StdPeripheralDriver/src/stm32f10x_flash.c **** /**
 546:../StdPeripheralDriver/src/stm32f10x_flash.c ****   * @brief  Erases all Bank1 FLASH pages.
 547:../StdPeripheralDriver/src/stm32f10x_flash.c ****   * @note   This function can be used for all STM32F10x devices.
 548:../StdPeripheralDriver/src/stm32f10x_flash.c ****   *         - For STM32F10X_XL devices this function erases all Bank1 pages.
 549:../StdPeripheralDriver/src/stm32f10x_flash.c ****   *         - For all other devices it erases all Bank1 pages and it is equivalent 
 550:../StdPeripheralDriver/src/stm32f10x_flash.c ****   *           to FLASH_EraseAllPages function.
 551:../StdPeripheralDriver/src/stm32f10x_flash.c ****   * @param  None
 552:../StdPeripheralDriver/src/stm32f10x_flash.c ****   * @retval FLASH Status: The returned value can be: FLASH_ERROR_PG,
 553:../StdPeripheralDriver/src/stm32f10x_flash.c ****   *         FLASH_ERROR_WRP, FLASH_COMPLETE or FLASH_TIMEOUT.
 554:../StdPeripheralDriver/src/stm32f10x_flash.c ****   */
 555:../StdPeripheralDriver/src/stm32f10x_flash.c **** FLASH_Status FLASH_EraseAllBank1Pages(void)
 556:../StdPeripheralDriver/src/stm32f10x_flash.c **** {
 18462              		.loc 1 556 0
 18463              		.cfi_startproc
 18464              		@ args = 0, pretend = 0, frame = 8
 18465              		@ frame_needed = 1, uses_anonymous_args = 0
 18466 0000 80B5     		push	{r7, lr}
 18467              	.LCFI23:
 18468              		.cfi_def_cfa_offset 8
 18469 0002 82B0     		sub	sp, sp, #8
 18470              	.LCFI24:
 18471              		.cfi_def_cfa_offset 16
 18472 0004 00AF     		add	r7, sp, #0
 18473              		.cfi_offset 14, -4
 18474              		.cfi_offset 7, -8
 18475              	.LCFI25:
 18476              		.cfi_def_cfa_register 7
 557:../StdPeripheralDriver/src/stm32f10x_flash.c ****   FLASH_Status status = FLASH_COMPLETE;
 18477              		.loc 1 557 0
 18478 0006 4FF00403 		mov	r3, #4
 18479 000a FB71     		strb	r3, [r7, #7]
 558:../StdPeripheralDriver/src/stm32f10x_flash.c ****   /* Wait for last operation to be completed */
 559:../StdPeripheralDriver/src/stm32f10x_flash.c ****   status = FLASH_WaitForLastBank1Operation(EraseTimeout);
 18480              		.loc 1 559 0
 18481 000c 4FF43020 		mov	r0, #720896
 18482 0010 FFF7FEFF 		bl	FLASH_WaitForLastBank1Operation
 18483 0014 0346     		mov	r3, r0
 18484 0016 FB71     		strb	r3, [r7, #7]
 560:../StdPeripheralDriver/src/stm32f10x_flash.c ****   
 561:../StdPeripheralDriver/src/stm32f10x_flash.c ****   if(status == FLASH_COMPLETE)
 18485              		.loc 1 561 0
 18486 0018 FB79     		ldrb	r3, [r7, #7]	@ zero_extendqisi2
 18487 001a 042B     		cmp	r3, #4
 18488 001c 19D1     		bne	.L31
 562:../StdPeripheralDriver/src/stm32f10x_flash.c ****   {
 563:../StdPeripheralDriver/src/stm32f10x_flash.c ****     /* if the previous operation is completed, proceed to erase all pages */
 564:../StdPeripheralDriver/src/stm32f10x_flash.c ****      FLASH->CR |= CR_MER_Set;
 18489              		.loc 1 564 0
 18490 001e 104B     		ldr	r3, .L32
 18491 0020 0F4A     		ldr	r2, .L32
 18492 0022 1269     		ldr	r2, [r2, #16]
 18493 0024 42F00402 		orr	r2, r2, #4
 18494 0028 1A61     		str	r2, [r3, #16]
 565:../StdPeripheralDriver/src/stm32f10x_flash.c ****      FLASH->CR |= CR_STRT_Set;
 18495              		.loc 1 565 0
 18496 002a 0D4B     		ldr	r3, .L32
 18497 002c 0C4A     		ldr	r2, .L32
 18498 002e 1269     		ldr	r2, [r2, #16]
 18499 0030 42F04002 		orr	r2, r2, #64
 18500 0034 1A61     		str	r2, [r3, #16]
 566:../StdPeripheralDriver/src/stm32f10x_flash.c ****     
 567:../StdPeripheralDriver/src/stm32f10x_flash.c ****     /* Wait for last operation to be completed */
 568:../StdPeripheralDriver/src/stm32f10x_flash.c ****     status = FLASH_WaitForLastBank1Operation(EraseTimeout);
 18501              		.loc 1 568 0
 18502 0036 4FF43020 		mov	r0, #720896
 18503 003a FFF7FEFF 		bl	FLASH_WaitForLastBank1Operation
 18504 003e 0346     		mov	r3, r0
 18505 0040 FB71     		strb	r3, [r7, #7]
 569:../StdPeripheralDriver/src/stm32f10x_flash.c ****     
 570:../StdPeripheralDriver/src/stm32f10x_flash.c ****     /* Disable the MER Bit */
 571:../StdPeripheralDriver/src/stm32f10x_flash.c ****     FLASH->CR &= CR_MER_Reset;
 18506              		.loc 1 571 0
 18507 0042 074A     		ldr	r2, .L32
 18508 0044 064B     		ldr	r3, .L32
 18509 0046 1969     		ldr	r1, [r3, #16]
 18510 0048 41F6FB73 		movw	r3, #8187
 18511 004c 01EA0303 		and	r3, r1, r3
 18512 0050 1361     		str	r3, [r2, #16]
 18513              	.L31:
 572:../StdPeripheralDriver/src/stm32f10x_flash.c ****   }    
 573:../StdPeripheralDriver/src/stm32f10x_flash.c ****   /* Return the Erase Status */
 574:../StdPeripheralDriver/src/stm32f10x_flash.c ****   return status;
 18514              		.loc 1 574 0
 18515 0052 FB79     		ldrb	r3, [r7, #7]	@ zero_extendqisi2
 575:../StdPeripheralDriver/src/stm32f10x_flash.c **** }
 18516              		.loc 1 575 0
 18517 0054 1846     		mov	r0, r3
 18518 0056 07F10807 		add	r7, r7, #8
 18519 005a BD46     		mov	sp, r7
 18520 005c 80BD     		pop	{r7, pc}
 18521              	.L33:
 18522 005e 00BF     		.align	2
 18523              	.L32:
 18524 0060 00200240 		.word	1073881088
 18525              		.cfi_endproc
 18526              	.LFE38:
 18528              		.section	.text.FLASH_EraseOptionBytes,"ax",%progbits
 18529              		.align	2
 18530              		.global	FLASH_EraseOptionBytes
 18531              		.thumb
 18532              		.thumb_func
 18534              	FLASH_EraseOptionBytes:
 18535              	.LFB39:
 576:../StdPeripheralDriver/src/stm32f10x_flash.c **** 
 577:../StdPeripheralDriver/src/stm32f10x_flash.c **** #ifdef STM32F10X_XL
 578:../StdPeripheralDriver/src/stm32f10x_flash.c **** /**
 579:../StdPeripheralDriver/src/stm32f10x_flash.c ****   * @brief  Erases all Bank2 FLASH pages.
 580:../StdPeripheralDriver/src/stm32f10x_flash.c ****   * @note   This function can be used only for STM32F10x_XL density devices.
 581:../StdPeripheralDriver/src/stm32f10x_flash.c ****   * @param  None
 582:../StdPeripheralDriver/src/stm32f10x_flash.c ****   * @retval FLASH Status: The returned value can be: FLASH_ERROR_PG,
 583:../StdPeripheralDriver/src/stm32f10x_flash.c ****   *         FLASH_ERROR_WRP, FLASH_COMPLETE or FLASH_TIMEOUT.
 584:../StdPeripheralDriver/src/stm32f10x_flash.c ****   */
 585:../StdPeripheralDriver/src/stm32f10x_flash.c **** FLASH_Status FLASH_EraseAllBank2Pages(void)
 586:../StdPeripheralDriver/src/stm32f10x_flash.c **** {
 587:../StdPeripheralDriver/src/stm32f10x_flash.c ****   FLASH_Status status = FLASH_COMPLETE;
 588:../StdPeripheralDriver/src/stm32f10x_flash.c ****   /* Wait for last operation to be completed */
 589:../StdPeripheralDriver/src/stm32f10x_flash.c ****   status = FLASH_WaitForLastBank2Operation(EraseTimeout);
 590:../StdPeripheralDriver/src/stm32f10x_flash.c ****   
 591:../StdPeripheralDriver/src/stm32f10x_flash.c ****   if(status == FLASH_COMPLETE)
 592:../StdPeripheralDriver/src/stm32f10x_flash.c ****   {
 593:../StdPeripheralDriver/src/stm32f10x_flash.c ****     /* if the previous operation is completed, proceed to erase all pages */
 594:../StdPeripheralDriver/src/stm32f10x_flash.c ****      FLASH->CR2 |= CR_MER_Set;
 595:../StdPeripheralDriver/src/stm32f10x_flash.c ****      FLASH->CR2 |= CR_STRT_Set;
 596:../StdPeripheralDriver/src/stm32f10x_flash.c ****     
 597:../StdPeripheralDriver/src/stm32f10x_flash.c ****     /* Wait for last operation to be completed */
 598:../StdPeripheralDriver/src/stm32f10x_flash.c ****     status = FLASH_WaitForLastBank2Operation(EraseTimeout);
 599:../StdPeripheralDriver/src/stm32f10x_flash.c **** 
 600:../StdPeripheralDriver/src/stm32f10x_flash.c ****     /* Disable the MER Bit */
 601:../StdPeripheralDriver/src/stm32f10x_flash.c ****     FLASH->CR2 &= CR_MER_Reset;
 602:../StdPeripheralDriver/src/stm32f10x_flash.c ****   }    
 603:../StdPeripheralDriver/src/stm32f10x_flash.c ****   /* Return the Erase Status */
 604:../StdPeripheralDriver/src/stm32f10x_flash.c ****   return status;
 605:../StdPeripheralDriver/src/stm32f10x_flash.c **** }
 606:../StdPeripheralDriver/src/stm32f10x_flash.c **** #endif /* STM32F10X_XL */
 607:../StdPeripheralDriver/src/stm32f10x_flash.c **** 
 608:../StdPeripheralDriver/src/stm32f10x_flash.c **** /**
 609:../StdPeripheralDriver/src/stm32f10x_flash.c ****   * @brief  Erases the FLASH option bytes.
 610:../StdPeripheralDriver/src/stm32f10x_flash.c ****   * @note   This functions erases all option bytes except the Read protection (RDP). 
 611:../StdPeripheralDriver/src/stm32f10x_flash.c ****   * @note   This function can be used for all STM32F10x devices.
 612:../StdPeripheralDriver/src/stm32f10x_flash.c ****   * @param  None
 613:../StdPeripheralDriver/src/stm32f10x_flash.c ****   * @retval FLASH Status: The returned value can be: FLASH_ERROR_PG,
 614:../StdPeripheralDriver/src/stm32f10x_flash.c ****   *         FLASH_ERROR_WRP, FLASH_COMPLETE or FLASH_TIMEOUT.
 615:../StdPeripheralDriver/src/stm32f10x_flash.c ****   */
 616:../StdPeripheralDriver/src/stm32f10x_flash.c **** FLASH_Status FLASH_EraseOptionBytes(void)
 617:../StdPeripheralDriver/src/stm32f10x_flash.c **** {
 18536              		.loc 1 617 0
 18537              		.cfi_startproc
 18538              		@ args = 0, pretend = 0, frame = 8
 18539              		@ frame_needed = 1, uses_anonymous_args = 0
 18540 0000 80B5     		push	{r7, lr}
 18541              	.LCFI26:
 18542              		.cfi_def_cfa_offset 8
 18543 0002 82B0     		sub	sp, sp, #8
 18544              	.LCFI27:
 18545              		.cfi_def_cfa_offset 16
 18546 0004 00AF     		add	r7, sp, #0
 18547              		.cfi_offset 14, -4
 18548              		.cfi_offset 7, -8
 18549              	.LCFI28:
 18550              		.cfi_def_cfa_register 7
 618:../StdPeripheralDriver/src/stm32f10x_flash.c ****   uint16_t rdptmp = RDP_Key;
 18551              		.loc 1 618 0
 18552 0006 4FF0A503 		mov	r3, #165
 18553 000a FB80     		strh	r3, [r7, #6]	@ movhi
 619:../StdPeripheralDriver/src/stm32f10x_flash.c **** 
 620:../StdPeripheralDriver/src/stm32f10x_flash.c ****   FLASH_Status status = FLASH_COMPLETE;
 18554              		.loc 1 620 0
 18555 000c 4FF00403 		mov	r3, #4
 18556 0010 7B71     		strb	r3, [r7, #5]
 621:../StdPeripheralDriver/src/stm32f10x_flash.c **** 
 622:../StdPeripheralDriver/src/stm32f10x_flash.c ****   /* Get the actual read protection Option Byte value */ 
 623:../StdPeripheralDriver/src/stm32f10x_flash.c ****   if(FLASH_GetReadOutProtectionStatus() != RESET)
 18557              		.loc 1 623 0
 18558 0012 FFF7FEFF 		bl	FLASH_GetReadOutProtectionStatus
 18559 0016 0346     		mov	r3, r0
 18560 0018 002B     		cmp	r3, #0
 18561 001a 02D0     		beq	.L35
 624:../StdPeripheralDriver/src/stm32f10x_flash.c ****   {
 625:../StdPeripheralDriver/src/stm32f10x_flash.c ****     rdptmp = 0x00;  
 18562              		.loc 1 625 0
 18563 001c 4FF00003 		mov	r3, #0
 18564 0020 FB80     		strh	r3, [r7, #6]	@ movhi
 18565              	.L35:
 626:../StdPeripheralDriver/src/stm32f10x_flash.c ****   }
 627:../StdPeripheralDriver/src/stm32f10x_flash.c **** 
 628:../StdPeripheralDriver/src/stm32f10x_flash.c ****   /* Wait for last operation to be completed */
 629:../StdPeripheralDriver/src/stm32f10x_flash.c ****   status = FLASH_WaitForLastOperation(EraseTimeout);
 18566              		.loc 1 629 0
 18567 0022 4FF43020 		mov	r0, #720896
 18568 0026 FFF7FEFF 		bl	FLASH_WaitForLastOperation
 18569 002a 0346     		mov	r3, r0
 18570 002c 7B71     		strb	r3, [r7, #5]
 630:../StdPeripheralDriver/src/stm32f10x_flash.c ****   if(status == FLASH_COMPLETE)
 18571              		.loc 1 630 0
 18572 002e 7B79     		ldrb	r3, [r7, #5]	@ zero_extendqisi2
 18573 0030 042B     		cmp	r3, #4
 18574 0032 48D1     		bne	.L36
 631:../StdPeripheralDriver/src/stm32f10x_flash.c ****   {
 632:../StdPeripheralDriver/src/stm32f10x_flash.c ****     /* Authorize the small information block programming */
 633:../StdPeripheralDriver/src/stm32f10x_flash.c ****     FLASH->OPTKEYR = FLASH_KEY1;
 18575              		.loc 1 633 0
 18576 0034 274B     		ldr	r3, .L38
 18577 0036 284A     		ldr	r2, .L38+4
 18578 0038 9A60     		str	r2, [r3, #8]
 634:../StdPeripheralDriver/src/stm32f10x_flash.c ****     FLASH->OPTKEYR = FLASH_KEY2;
 18579              		.loc 1 634 0
 18580 003a 264B     		ldr	r3, .L38
 18581 003c 274A     		ldr	r2, .L38+8
 18582 003e 9A60     		str	r2, [r3, #8]
 635:../StdPeripheralDriver/src/stm32f10x_flash.c ****     
 636:../StdPeripheralDriver/src/stm32f10x_flash.c ****     /* if the previous operation is completed, proceed to erase the option bytes */
 637:../StdPeripheralDriver/src/stm32f10x_flash.c ****     FLASH->CR |= CR_OPTER_Set;
 18583              		.loc 1 637 0
 18584 0040 244B     		ldr	r3, .L38
 18585 0042 244A     		ldr	r2, .L38
 18586 0044 1269     		ldr	r2, [r2, #16]
 18587 0046 42F02002 		orr	r2, r2, #32
 18588 004a 1A61     		str	r2, [r3, #16]
 638:../StdPeripheralDriver/src/stm32f10x_flash.c ****     FLASH->CR |= CR_STRT_Set;
 18589              		.loc 1 638 0
 18590 004c 214B     		ldr	r3, .L38
 18591 004e 214A     		ldr	r2, .L38
 18592 0050 1269     		ldr	r2, [r2, #16]
 18593 0052 42F04002 		orr	r2, r2, #64
 18594 0056 1A61     		str	r2, [r3, #16]
 639:../StdPeripheralDriver/src/stm32f10x_flash.c ****     /* Wait for last operation to be completed */
 640:../StdPeripheralDriver/src/stm32f10x_flash.c ****     status = FLASH_WaitForLastOperation(EraseTimeout);
 18595              		.loc 1 640 0
 18596 0058 4FF43020 		mov	r0, #720896
 18597 005c FFF7FEFF 		bl	FLASH_WaitForLastOperation
 18598 0060 0346     		mov	r3, r0
 18599 0062 7B71     		strb	r3, [r7, #5]
 641:../StdPeripheralDriver/src/stm32f10x_flash.c ****     
 642:../StdPeripheralDriver/src/stm32f10x_flash.c ****     if(status == FLASH_COMPLETE)
 18600              		.loc 1 642 0
 18601 0064 7B79     		ldrb	r3, [r7, #5]	@ zero_extendqisi2
 18602 0066 042B     		cmp	r3, #4
 18603 0068 22D1     		bne	.L37
 643:../StdPeripheralDriver/src/stm32f10x_flash.c ****     {
 644:../StdPeripheralDriver/src/stm32f10x_flash.c ****       /* if the erase operation is completed, disable the OPTER Bit */
 645:../StdPeripheralDriver/src/stm32f10x_flash.c ****       FLASH->CR &= CR_OPTER_Reset;
 18604              		.loc 1 645 0
 18605 006a 1A4A     		ldr	r2, .L38
 18606 006c 194B     		ldr	r3, .L38
 18607 006e 1969     		ldr	r1, [r3, #16]
 18608 0070 41F6DF73 		movw	r3, #8159
 18609 0074 01EA0303 		and	r3, r1, r3
 18610 0078 1361     		str	r3, [r2, #16]
 646:../StdPeripheralDriver/src/stm32f10x_flash.c ****        
 647:../StdPeripheralDriver/src/stm32f10x_flash.c ****       /* Enable the Option Bytes Programming operation */
 648:../StdPeripheralDriver/src/stm32f10x_flash.c ****       FLASH->CR |= CR_OPTPG_Set;
 18611              		.loc 1 648 0
 18612 007a 164B     		ldr	r3, .L38
 18613 007c 154A     		ldr	r2, .L38
 18614 007e 1269     		ldr	r2, [r2, #16]
 18615 0080 42F01002 		orr	r2, r2, #16
 18616 0084 1A61     		str	r2, [r3, #16]
 649:../StdPeripheralDriver/src/stm32f10x_flash.c ****       /* Restore the last read protection Option Byte value */
 650:../StdPeripheralDriver/src/stm32f10x_flash.c ****       OB->RDP = (uint16_t)rdptmp; 
 18617              		.loc 1 650 0
 18618 0086 164B     		ldr	r3, .L38+12
 18619 0088 FA88     		ldrh	r2, [r7, #6]	@ movhi
 18620 008a 1A80     		strh	r2, [r3, #0]	@ movhi
 651:../StdPeripheralDriver/src/stm32f10x_flash.c ****       /* Wait for last operation to be completed */
 652:../StdPeripheralDriver/src/stm32f10x_flash.c ****       status = FLASH_WaitForLastOperation(ProgramTimeout);
 18621              		.loc 1 652 0
 18622 008c 4FF40050 		mov	r0, #8192
 18623 0090 FFF7FEFF 		bl	FLASH_WaitForLastOperation
 18624 0094 0346     		mov	r3, r0
 18625 0096 7B71     		strb	r3, [r7, #5]
 653:../StdPeripheralDriver/src/stm32f10x_flash.c ****  
 654:../StdPeripheralDriver/src/stm32f10x_flash.c ****       if(status != FLASH_TIMEOUT)
 18626              		.loc 1 654 0
 18627 0098 7B79     		ldrb	r3, [r7, #5]	@ zero_extendqisi2
 18628 009a 052B     		cmp	r3, #5
 18629 009c 13D0     		beq	.L36
 655:../StdPeripheralDriver/src/stm32f10x_flash.c ****       {
 656:../StdPeripheralDriver/src/stm32f10x_flash.c ****         /* if the program operation is completed, disable the OPTPG Bit */
 657:../StdPeripheralDriver/src/stm32f10x_flash.c ****         FLASH->CR &= CR_OPTPG_Reset;
 18630              		.loc 1 657 0
 18631 009e 0D4A     		ldr	r2, .L38
 18632 00a0 0C4B     		ldr	r3, .L38
 18633 00a2 1969     		ldr	r1, [r3, #16]
 18634 00a4 41F6EF73 		movw	r3, #8175
 18635 00a8 01EA0303 		and	r3, r1, r3
 18636 00ac 1361     		str	r3, [r2, #16]
 18637 00ae 0AE0     		b	.L36
 18638              	.L37:
 658:../StdPeripheralDriver/src/stm32f10x_flash.c ****       }
 659:../StdPeripheralDriver/src/stm32f10x_flash.c ****     }
 660:../StdPeripheralDriver/src/stm32f10x_flash.c ****     else
 661:../StdPeripheralDriver/src/stm32f10x_flash.c ****     {
 662:../StdPeripheralDriver/src/stm32f10x_flash.c ****       if (status != FLASH_TIMEOUT)
 18639              		.loc 1 662 0
 18640 00b0 7B79     		ldrb	r3, [r7, #5]	@ zero_extendqisi2
 18641 00b2 052B     		cmp	r3, #5
 18642 00b4 07D0     		beq	.L36
 663:../StdPeripheralDriver/src/stm32f10x_flash.c ****       {
 664:../StdPeripheralDriver/src/stm32f10x_flash.c ****         /* Disable the OPTPG Bit */
 665:../StdPeripheralDriver/src/stm32f10x_flash.c ****         FLASH->CR &= CR_OPTPG_Reset;
 18643              		.loc 1 665 0
 18644 00b6 074A     		ldr	r2, .L38
 18645 00b8 064B     		ldr	r3, .L38
 18646 00ba 1969     		ldr	r1, [r3, #16]
 18647 00bc 41F6EF73 		movw	r3, #8175
 18648 00c0 01EA0303 		and	r3, r1, r3
 18649 00c4 1361     		str	r3, [r2, #16]
 18650              	.L36:
 666:../StdPeripheralDriver/src/stm32f10x_flash.c ****       }
 667:../StdPeripheralDriver/src/stm32f10x_flash.c ****     }  
 668:../StdPeripheralDriver/src/stm32f10x_flash.c ****   }
 669:../StdPeripheralDriver/src/stm32f10x_flash.c ****   /* Return the erase status */
 670:../StdPeripheralDriver/src/stm32f10x_flash.c ****   return status;
 18651              		.loc 1 670 0
 18652 00c6 7B79     		ldrb	r3, [r7, #5]	@ zero_extendqisi2
 671:../StdPeripheralDriver/src/stm32f10x_flash.c **** }
 18653              		.loc 1 671 0
 18654 00c8 1846     		mov	r0, r3
 18655 00ca 07F10807 		add	r7, r7, #8
 18656 00ce BD46     		mov	sp, r7
 18657 00d0 80BD     		pop	{r7, pc}
 18658              	.L39:
 18659 00d2 00BF     		.align	2
 18660              	.L38:
 18661 00d4 00200240 		.word	1073881088
 18662 00d8 23016745 		.word	1164378403
 18663 00dc AB89EFCD 		.word	-839939669
 18664 00e0 00F8FF1F 		.word	536868864
 18665              		.cfi_endproc
 18666              	.LFE39:
 18668              		.section	.text.FLASH_ProgramWord,"ax",%progbits
 18669              		.align	2
 18670              		.global	FLASH_ProgramWord
 18671              		.thumb
 18672              		.thumb_func
 18674              	FLASH_ProgramWord:
 18675              	.LFB40:
 672:../StdPeripheralDriver/src/stm32f10x_flash.c **** 
 673:../StdPeripheralDriver/src/stm32f10x_flash.c **** /**
 674:../StdPeripheralDriver/src/stm32f10x_flash.c ****   * @brief  Programs a word at a specified address.
 675:../StdPeripheralDriver/src/stm32f10x_flash.c ****   * @note   This function can be used for all STM32F10x devices.
 676:../StdPeripheralDriver/src/stm32f10x_flash.c ****   * @param  Address: specifies the address to be programmed.
 677:../StdPeripheralDriver/src/stm32f10x_flash.c ****   * @param  Data: specifies the data to be programmed.
 678:../StdPeripheralDriver/src/stm32f10x_flash.c ****   * @retval FLASH Status: The returned value can be: FLASH_ERROR_PG,
 679:../StdPeripheralDriver/src/stm32f10x_flash.c ****   *         FLASH_ERROR_WRP, FLASH_COMPLETE or FLASH_TIMEOUT. 
 680:../StdPeripheralDriver/src/stm32f10x_flash.c ****   */
 681:../StdPeripheralDriver/src/stm32f10x_flash.c **** FLASH_Status FLASH_ProgramWord(uint32_t Address, uint32_t Data)
 682:../StdPeripheralDriver/src/stm32f10x_flash.c **** {
 18676              		.loc 1 682 0
 18677              		.cfi_startproc
 18678              		@ args = 0, pretend = 0, frame = 16
 18679              		@ frame_needed = 1, uses_anonymous_args = 0
 18680 0000 80B5     		push	{r7, lr}
 18681              	.LCFI29:
 18682              		.cfi_def_cfa_offset 8
 18683 0002 84B0     		sub	sp, sp, #16
 18684              	.LCFI30:
 18685              		.cfi_def_cfa_offset 24
 18686 0004 00AF     		add	r7, sp, #0
 18687              		.cfi_offset 14, -4
 18688              		.cfi_offset 7, -8
 18689              	.LCFI31:
 18690              		.cfi_def_cfa_register 7
 18691 0006 7860     		str	r0, [r7, #4]
 18692 0008 3960     		str	r1, [r7, #0]
 683:../StdPeripheralDriver/src/stm32f10x_flash.c ****   FLASH_Status status = FLASH_COMPLETE;
 18693              		.loc 1 683 0
 18694 000a 4FF00403 		mov	r3, #4
 18695 000e FB73     		strb	r3, [r7, #15]
 684:../StdPeripheralDriver/src/stm32f10x_flash.c ****   __IO uint32_t tmp = 0;
 18696              		.loc 1 684 0
 18697 0010 4FF00003 		mov	r3, #0
 18698 0014 BB60     		str	r3, [r7, #8]
 685:../StdPeripheralDriver/src/stm32f10x_flash.c **** 
 686:../StdPeripheralDriver/src/stm32f10x_flash.c ****   /* Check the parameters */
 687:../StdPeripheralDriver/src/stm32f10x_flash.c ****   assert_param(IS_FLASH_ADDRESS(Address));
 688:../StdPeripheralDriver/src/stm32f10x_flash.c **** 
 689:../StdPeripheralDriver/src/stm32f10x_flash.c **** #ifdef STM32F10X_XL
 690:../StdPeripheralDriver/src/stm32f10x_flash.c ****   if(Address < FLASH_BANK1_END_ADDRESS - 2)
 691:../StdPeripheralDriver/src/stm32f10x_flash.c ****   { 
 692:../StdPeripheralDriver/src/stm32f10x_flash.c ****     /* Wait for last operation to be completed */
 693:../StdPeripheralDriver/src/stm32f10x_flash.c ****     status = FLASH_WaitForLastBank1Operation(ProgramTimeout); 
 694:../StdPeripheralDriver/src/stm32f10x_flash.c ****     if(status == FLASH_COMPLETE)
 695:../StdPeripheralDriver/src/stm32f10x_flash.c ****     {
 696:../StdPeripheralDriver/src/stm32f10x_flash.c ****       /* if the previous operation is completed, proceed to program the new first 
 697:../StdPeripheralDriver/src/stm32f10x_flash.c ****         half word */
 698:../StdPeripheralDriver/src/stm32f10x_flash.c ****       FLASH->CR |= CR_PG_Set;
 699:../StdPeripheralDriver/src/stm32f10x_flash.c ****   
 700:../StdPeripheralDriver/src/stm32f10x_flash.c ****       *(__IO uint16_t*)Address = (uint16_t)Data;
 701:../StdPeripheralDriver/src/stm32f10x_flash.c ****       /* Wait for last operation to be completed */
 702:../StdPeripheralDriver/src/stm32f10x_flash.c ****       status = FLASH_WaitForLastOperation(ProgramTimeout);
 703:../StdPeripheralDriver/src/stm32f10x_flash.c ****  
 704:../StdPeripheralDriver/src/stm32f10x_flash.c ****       if(status == FLASH_COMPLETE)
 705:../StdPeripheralDriver/src/stm32f10x_flash.c ****       {
 706:../StdPeripheralDriver/src/stm32f10x_flash.c ****         /* if the previous operation is completed, proceed to program the new second 
 707:../StdPeripheralDriver/src/stm32f10x_flash.c ****         half word */
 708:../StdPeripheralDriver/src/stm32f10x_flash.c ****         tmp = Address + 2;
 709:../StdPeripheralDriver/src/stm32f10x_flash.c **** 
 710:../StdPeripheralDriver/src/stm32f10x_flash.c ****         *(__IO uint16_t*) tmp = Data >> 16;
 711:../StdPeripheralDriver/src/stm32f10x_flash.c ****     
 712:../StdPeripheralDriver/src/stm32f10x_flash.c ****         /* Wait for last operation to be completed */
 713:../StdPeripheralDriver/src/stm32f10x_flash.c ****         status = FLASH_WaitForLastOperation(ProgramTimeout);
 714:../StdPeripheralDriver/src/stm32f10x_flash.c ****         
 715:../StdPeripheralDriver/src/stm32f10x_flash.c ****         /* Disable the PG Bit */
 716:../StdPeripheralDriver/src/stm32f10x_flash.c ****         FLASH->CR &= CR_PG_Reset;
 717:../StdPeripheralDriver/src/stm32f10x_flash.c ****       }
 718:../StdPeripheralDriver/src/stm32f10x_flash.c ****       else
 719:../StdPeripheralDriver/src/stm32f10x_flash.c ****       {
 720:../StdPeripheralDriver/src/stm32f10x_flash.c ****         /* Disable the PG Bit */
 721:../StdPeripheralDriver/src/stm32f10x_flash.c ****         FLASH->CR &= CR_PG_Reset;
 722:../StdPeripheralDriver/src/stm32f10x_flash.c ****        }
 723:../StdPeripheralDriver/src/stm32f10x_flash.c ****     }
 724:../StdPeripheralDriver/src/stm32f10x_flash.c ****   }
 725:../StdPeripheralDriver/src/stm32f10x_flash.c ****   else if(Address == (FLASH_BANK1_END_ADDRESS - 1))
 726:../StdPeripheralDriver/src/stm32f10x_flash.c ****   {
 727:../StdPeripheralDriver/src/stm32f10x_flash.c ****     /* Wait for last operation to be completed */
 728:../StdPeripheralDriver/src/stm32f10x_flash.c ****     status = FLASH_WaitForLastBank1Operation(ProgramTimeout);
 729:../StdPeripheralDriver/src/stm32f10x_flash.c **** 
 730:../StdPeripheralDriver/src/stm32f10x_flash.c ****     if(status == FLASH_COMPLETE)
 731:../StdPeripheralDriver/src/stm32f10x_flash.c ****     {
 732:../StdPeripheralDriver/src/stm32f10x_flash.c ****       /* if the previous operation is completed, proceed to program the new first 
 733:../StdPeripheralDriver/src/stm32f10x_flash.c ****         half word */
 734:../StdPeripheralDriver/src/stm32f10x_flash.c ****       FLASH->CR |= CR_PG_Set;
 735:../StdPeripheralDriver/src/stm32f10x_flash.c ****   
 736:../StdPeripheralDriver/src/stm32f10x_flash.c ****       *(__IO uint16_t*)Address = (uint16_t)Data;
 737:../StdPeripheralDriver/src/stm32f10x_flash.c **** 
 738:../StdPeripheralDriver/src/stm32f10x_flash.c ****       /* Wait for last operation to be completed */
 739:../StdPeripheralDriver/src/stm32f10x_flash.c ****       status = FLASH_WaitForLastBank1Operation(ProgramTimeout);
 740:../StdPeripheralDriver/src/stm32f10x_flash.c ****       
 741:../StdPeripheralDriver/src/stm32f10x_flash.c **** 	  /* Disable the PG Bit */
 742:../StdPeripheralDriver/src/stm32f10x_flash.c ****       FLASH->CR &= CR_PG_Reset;
 743:../StdPeripheralDriver/src/stm32f10x_flash.c ****     }
 744:../StdPeripheralDriver/src/stm32f10x_flash.c ****     else
 745:../StdPeripheralDriver/src/stm32f10x_flash.c ****     {
 746:../StdPeripheralDriver/src/stm32f10x_flash.c ****       /* Disable the PG Bit */
 747:../StdPeripheralDriver/src/stm32f10x_flash.c ****       FLASH->CR &= CR_PG_Reset;
 748:../StdPeripheralDriver/src/stm32f10x_flash.c ****     }
 749:../StdPeripheralDriver/src/stm32f10x_flash.c **** 
 750:../StdPeripheralDriver/src/stm32f10x_flash.c ****     /* Wait for last operation to be completed */
 751:../StdPeripheralDriver/src/stm32f10x_flash.c ****     status = FLASH_WaitForLastBank2Operation(ProgramTimeout);
 752:../StdPeripheralDriver/src/stm32f10x_flash.c **** 
 753:../StdPeripheralDriver/src/stm32f10x_flash.c ****     if(status == FLASH_COMPLETE)
 754:../StdPeripheralDriver/src/stm32f10x_flash.c ****     {
 755:../StdPeripheralDriver/src/stm32f10x_flash.c ****       /* if the previous operation is completed, proceed to program the new second 
 756:../StdPeripheralDriver/src/stm32f10x_flash.c ****       half word */
 757:../StdPeripheralDriver/src/stm32f10x_flash.c ****       FLASH->CR2 |= CR_PG_Set;
 758:../StdPeripheralDriver/src/stm32f10x_flash.c ****       tmp = Address + 2;
 759:../StdPeripheralDriver/src/stm32f10x_flash.c **** 
 760:../StdPeripheralDriver/src/stm32f10x_flash.c ****       *(__IO uint16_t*) tmp = Data >> 16;
 761:../StdPeripheralDriver/src/stm32f10x_flash.c ****     
 762:../StdPeripheralDriver/src/stm32f10x_flash.c ****       /* Wait for last operation to be completed */
 763:../StdPeripheralDriver/src/stm32f10x_flash.c ****       status = FLASH_WaitForLastBank2Operation(ProgramTimeout);
 764:../StdPeripheralDriver/src/stm32f10x_flash.c ****         
 765:../StdPeripheralDriver/src/stm32f10x_flash.c ****       /* Disable the PG Bit */
 766:../StdPeripheralDriver/src/stm32f10x_flash.c ****       FLASH->CR2 &= CR_PG_Reset;
 767:../StdPeripheralDriver/src/stm32f10x_flash.c ****     }
 768:../StdPeripheralDriver/src/stm32f10x_flash.c ****     else
 769:../StdPeripheralDriver/src/stm32f10x_flash.c ****     {
 770:../StdPeripheralDriver/src/stm32f10x_flash.c ****       /* Disable the PG Bit */
 771:../StdPeripheralDriver/src/stm32f10x_flash.c ****       FLASH->CR2 &= CR_PG_Reset;
 772:../StdPeripheralDriver/src/stm32f10x_flash.c ****     }
 773:../StdPeripheralDriver/src/stm32f10x_flash.c ****   }
 774:../StdPeripheralDriver/src/stm32f10x_flash.c ****   else
 775:../StdPeripheralDriver/src/stm32f10x_flash.c ****   {
 776:../StdPeripheralDriver/src/stm32f10x_flash.c ****     /* Wait for last operation to be completed */
 777:../StdPeripheralDriver/src/stm32f10x_flash.c ****     status = FLASH_WaitForLastBank2Operation(ProgramTimeout);
 778:../StdPeripheralDriver/src/stm32f10x_flash.c **** 
 779:../StdPeripheralDriver/src/stm32f10x_flash.c ****     if(status == FLASH_COMPLETE)
 780:../StdPeripheralDriver/src/stm32f10x_flash.c ****     {
 781:../StdPeripheralDriver/src/stm32f10x_flash.c ****       /* if the previous operation is completed, proceed to program the new first 
 782:../StdPeripheralDriver/src/stm32f10x_flash.c ****         half word */
 783:../StdPeripheralDriver/src/stm32f10x_flash.c ****       FLASH->CR2 |= CR_PG_Set;
 784:../StdPeripheralDriver/src/stm32f10x_flash.c ****   
 785:../StdPeripheralDriver/src/stm32f10x_flash.c ****       *(__IO uint16_t*)Address = (uint16_t)Data;
 786:../StdPeripheralDriver/src/stm32f10x_flash.c ****       /* Wait for last operation to be completed */
 787:../StdPeripheralDriver/src/stm32f10x_flash.c ****       status = FLASH_WaitForLastBank2Operation(ProgramTimeout);
 788:../StdPeripheralDriver/src/stm32f10x_flash.c ****  
 789:../StdPeripheralDriver/src/stm32f10x_flash.c ****       if(status == FLASH_COMPLETE)
 790:../StdPeripheralDriver/src/stm32f10x_flash.c ****       {
 791:../StdPeripheralDriver/src/stm32f10x_flash.c ****         /* if the previous operation is completed, proceed to program the new second 
 792:../StdPeripheralDriver/src/stm32f10x_flash.c ****         half word */
 793:../StdPeripheralDriver/src/stm32f10x_flash.c ****         tmp = Address + 2;
 794:../StdPeripheralDriver/src/stm32f10x_flash.c **** 
 795:../StdPeripheralDriver/src/stm32f10x_flash.c ****         *(__IO uint16_t*) tmp = Data >> 16;
 796:../StdPeripheralDriver/src/stm32f10x_flash.c ****     
 797:../StdPeripheralDriver/src/stm32f10x_flash.c ****         /* Wait for last operation to be completed */
 798:../StdPeripheralDriver/src/stm32f10x_flash.c ****         status = FLASH_WaitForLastBank2Operation(ProgramTimeout);
 799:../StdPeripheralDriver/src/stm32f10x_flash.c ****         
 800:../StdPeripheralDriver/src/stm32f10x_flash.c ****         /* Disable the PG Bit */
 801:../StdPeripheralDriver/src/stm32f10x_flash.c ****         FLASH->CR2 &= CR_PG_Reset;
 802:../StdPeripheralDriver/src/stm32f10x_flash.c ****       }
 803:../StdPeripheralDriver/src/stm32f10x_flash.c ****       else
 804:../StdPeripheralDriver/src/stm32f10x_flash.c ****       {
 805:../StdPeripheralDriver/src/stm32f10x_flash.c ****         /* Disable the PG Bit */
 806:../StdPeripheralDriver/src/stm32f10x_flash.c ****         FLASH->CR2 &= CR_PG_Reset;
 807:../StdPeripheralDriver/src/stm32f10x_flash.c ****       }
 808:../StdPeripheralDriver/src/stm32f10x_flash.c ****     }
 809:../StdPeripheralDriver/src/stm32f10x_flash.c ****   }
 810:../StdPeripheralDriver/src/stm32f10x_flash.c **** #else
 811:../StdPeripheralDriver/src/stm32f10x_flash.c ****   /* Wait for last operation to be completed */
 812:../StdPeripheralDriver/src/stm32f10x_flash.c ****   status = FLASH_WaitForLastOperation(ProgramTimeout);
 18699              		.loc 1 812 0
 18700 0016 4FF40050 		mov	r0, #8192
 18701 001a FFF7FEFF 		bl	FLASH_WaitForLastOperation
 18702 001e 0346     		mov	r3, r0
 18703 0020 FB73     		strb	r3, [r7, #15]
 813:../StdPeripheralDriver/src/stm32f10x_flash.c ****   
 814:../StdPeripheralDriver/src/stm32f10x_flash.c ****   if(status == FLASH_COMPLETE)
 18704              		.loc 1 814 0
 18705 0022 FB7B     		ldrb	r3, [r7, #15]	@ zero_extendqisi2
 18706 0024 042B     		cmp	r3, #4
 18707 0026 33D1     		bne	.L41
 815:../StdPeripheralDriver/src/stm32f10x_flash.c ****   {
 816:../StdPeripheralDriver/src/stm32f10x_flash.c ****     /* if the previous operation is completed, proceed to program the new first 
 817:../StdPeripheralDriver/src/stm32f10x_flash.c ****     half word */
 818:../StdPeripheralDriver/src/stm32f10x_flash.c ****     FLASH->CR |= CR_PG_Set;
 18708              		.loc 1 818 0
 18709 0028 1C4B     		ldr	r3, .L43
 18710 002a 1C4A     		ldr	r2, .L43
 18711 002c 1269     		ldr	r2, [r2, #16]
 18712 002e 42F00102 		orr	r2, r2, #1
 18713 0032 1A61     		str	r2, [r3, #16]
 819:../StdPeripheralDriver/src/stm32f10x_flash.c ****   
 820:../StdPeripheralDriver/src/stm32f10x_flash.c ****     *(__IO uint16_t*)Address = (uint16_t)Data;
 18714              		.loc 1 820 0
 18715 0034 7B68     		ldr	r3, [r7, #4]
 18716 0036 3A68     		ldr	r2, [r7, #0]
 18717 0038 92B2     		uxth	r2, r2
 18718 003a 1A80     		strh	r2, [r3, #0]	@ movhi
 821:../StdPeripheralDriver/src/stm32f10x_flash.c ****     /* Wait for last operation to be completed */
 822:../StdPeripheralDriver/src/stm32f10x_flash.c ****     status = FLASH_WaitForLastOperation(ProgramTimeout);
 18719              		.loc 1 822 0
 18720 003c 4FF40050 		mov	r0, #8192
 18721 0040 FFF7FEFF 		bl	FLASH_WaitForLastOperation
 18722 0044 0346     		mov	r3, r0
 18723 0046 FB73     		strb	r3, [r7, #15]
 823:../StdPeripheralDriver/src/stm32f10x_flash.c ****  
 824:../StdPeripheralDriver/src/stm32f10x_flash.c ****     if(status == FLASH_COMPLETE)
 18724              		.loc 1 824 0
 18725 0048 FB7B     		ldrb	r3, [r7, #15]	@ zero_extendqisi2
 18726 004a 042B     		cmp	r3, #4
 18727 004c 18D1     		bne	.L42
 825:../StdPeripheralDriver/src/stm32f10x_flash.c ****     {
 826:../StdPeripheralDriver/src/stm32f10x_flash.c ****       /* if the previous operation is completed, proceed to program the new second 
 827:../StdPeripheralDriver/src/stm32f10x_flash.c ****       half word */
 828:../StdPeripheralDriver/src/stm32f10x_flash.c ****       tmp = Address + 2;
 18728              		.loc 1 828 0
 18729 004e 7B68     		ldr	r3, [r7, #4]
 18730 0050 03F10203 		add	r3, r3, #2
 18731 0054 BB60     		str	r3, [r7, #8]
 829:../StdPeripheralDriver/src/stm32f10x_flash.c **** 
 830:../StdPeripheralDriver/src/stm32f10x_flash.c ****       *(__IO uint16_t*) tmp = Data >> 16;
 18732              		.loc 1 830 0
 18733 0056 BB68     		ldr	r3, [r7, #8]
 18734 0058 3A68     		ldr	r2, [r7, #0]
 18735 005a 4FEA1242 		lsr	r2, r2, #16
 18736 005e 92B2     		uxth	r2, r2
 18737 0060 1A80     		strh	r2, [r3, #0]	@ movhi
 831:../StdPeripheralDriver/src/stm32f10x_flash.c ****     
 832:../StdPeripheralDriver/src/stm32f10x_flash.c ****       /* Wait for last operation to be completed */
 833:../StdPeripheralDriver/src/stm32f10x_flash.c ****       status = FLASH_WaitForLastOperation(ProgramTimeout);
 18738              		.loc 1 833 0
 18739 0062 4FF40050 		mov	r0, #8192
 18740 0066 FFF7FEFF 		bl	FLASH_WaitForLastOperation
 18741 006a 0346     		mov	r3, r0
 18742 006c FB73     		strb	r3, [r7, #15]
 834:../StdPeripheralDriver/src/stm32f10x_flash.c ****         
 835:../StdPeripheralDriver/src/stm32f10x_flash.c ****       /* Disable the PG Bit */
 836:../StdPeripheralDriver/src/stm32f10x_flash.c ****       FLASH->CR &= CR_PG_Reset;
 18743              		.loc 1 836 0
 18744 006e 0B4A     		ldr	r2, .L43
 18745 0070 0A4B     		ldr	r3, .L43
 18746 0072 1969     		ldr	r1, [r3, #16]
 18747 0074 41F6FE73 		movw	r3, #8190
 18748 0078 01EA0303 		and	r3, r1, r3
 18749 007c 1361     		str	r3, [r2, #16]
 18750 007e 07E0     		b	.L41
 18751              	.L42:
 837:../StdPeripheralDriver/src/stm32f10x_flash.c ****     }
 838:../StdPeripheralDriver/src/stm32f10x_flash.c ****     else
 839:../StdPeripheralDriver/src/stm32f10x_flash.c ****     {
 840:../StdPeripheralDriver/src/stm32f10x_flash.c ****       /* Disable the PG Bit */
 841:../StdPeripheralDriver/src/stm32f10x_flash.c ****       FLASH->CR &= CR_PG_Reset;
 18752              		.loc 1 841 0
 18753 0080 064A     		ldr	r2, .L43
 18754 0082 064B     		ldr	r3, .L43
 18755 0084 1969     		ldr	r1, [r3, #16]
 18756 0086 41F6FE73 		movw	r3, #8190
 18757 008a 01EA0303 		and	r3, r1, r3
 18758 008e 1361     		str	r3, [r2, #16]
 18759              	.L41:
 842:../StdPeripheralDriver/src/stm32f10x_flash.c ****     }
 843:../StdPeripheralDriver/src/stm32f10x_flash.c ****   }         
 844:../StdPeripheralDriver/src/stm32f10x_flash.c **** #endif /* STM32F10X_XL */
 845:../StdPeripheralDriver/src/stm32f10x_flash.c ****    
 846:../StdPeripheralDriver/src/stm32f10x_flash.c ****   /* Return the Program Status */
 847:../StdPeripheralDriver/src/stm32f10x_flash.c ****   return status;
 18760              		.loc 1 847 0
 18761 0090 FB7B     		ldrb	r3, [r7, #15]	@ zero_extendqisi2
 848:../StdPeripheralDriver/src/stm32f10x_flash.c **** }
 18762              		.loc 1 848 0
 18763 0092 1846     		mov	r0, r3
 18764 0094 07F11007 		add	r7, r7, #16
 18765 0098 BD46     		mov	sp, r7
 18766 009a 80BD     		pop	{r7, pc}
 18767              	.L44:
 18768              		.align	2
 18769              	.L43:
 18770 009c 00200240 		.word	1073881088
 18771              		.cfi_endproc
 18772              	.LFE40:
 18774              		.section	.text.FLASH_ProgramHalfWord,"ax",%progbits
 18775              		.align	2
 18776              		.global	FLASH_ProgramHalfWord
 18777              		.thumb
 18778              		.thumb_func
 18780              	FLASH_ProgramHalfWord:
 18781              	.LFB41:
 849:../StdPeripheralDriver/src/stm32f10x_flash.c **** 
 850:../StdPeripheralDriver/src/stm32f10x_flash.c **** /**
 851:../StdPeripheralDriver/src/stm32f10x_flash.c ****   * @brief  Programs a half word at a specified address.
 852:../StdPeripheralDriver/src/stm32f10x_flash.c ****   * @note   This function can be used for all STM32F10x devices.
 853:../StdPeripheralDriver/src/stm32f10x_flash.c ****   * @param  Address: specifies the address to be programmed.
 854:../StdPeripheralDriver/src/stm32f10x_flash.c ****   * @param  Data: specifies the data to be programmed.
 855:../StdPeripheralDriver/src/stm32f10x_flash.c ****   * @retval FLASH Status: The returned value can be: FLASH_ERROR_PG,
 856:../StdPeripheralDriver/src/stm32f10x_flash.c ****   *         FLASH_ERROR_WRP, FLASH_COMPLETE or FLASH_TIMEOUT. 
 857:../StdPeripheralDriver/src/stm32f10x_flash.c ****   */
 858:../StdPeripheralDriver/src/stm32f10x_flash.c **** FLASH_Status FLASH_ProgramHalfWord(uint32_t Address, uint16_t Data)
 859:../StdPeripheralDriver/src/stm32f10x_flash.c **** {
 18782              		.loc 1 859 0
 18783              		.cfi_startproc
 18784              		@ args = 0, pretend = 0, frame = 16
 18785              		@ frame_needed = 1, uses_anonymous_args = 0
 18786 0000 80B5     		push	{r7, lr}
 18787              	.LCFI32:
 18788              		.cfi_def_cfa_offset 8
 18789 0002 84B0     		sub	sp, sp, #16
 18790              	.LCFI33:
 18791              		.cfi_def_cfa_offset 24
 18792 0004 00AF     		add	r7, sp, #0
 18793              		.cfi_offset 14, -4
 18794              		.cfi_offset 7, -8
 18795              	.LCFI34:
 18796              		.cfi_def_cfa_register 7
 18797 0006 7860     		str	r0, [r7, #4]
 18798 0008 0B46     		mov	r3, r1
 18799 000a 7B80     		strh	r3, [r7, #2]	@ movhi
 860:../StdPeripheralDriver/src/stm32f10x_flash.c ****   FLASH_Status status = FLASH_COMPLETE;
 18800              		.loc 1 860 0
 18801 000c 4FF00403 		mov	r3, #4
 18802 0010 FB73     		strb	r3, [r7, #15]
 861:../StdPeripheralDriver/src/stm32f10x_flash.c ****   /* Check the parameters */
 862:../StdPeripheralDriver/src/stm32f10x_flash.c ****   assert_param(IS_FLASH_ADDRESS(Address));
 863:../StdPeripheralDriver/src/stm32f10x_flash.c **** 
 864:../StdPeripheralDriver/src/stm32f10x_flash.c **** #ifdef STM32F10X_XL
 865:../StdPeripheralDriver/src/stm32f10x_flash.c ****   /* Wait for last operation to be completed */
 866:../StdPeripheralDriver/src/stm32f10x_flash.c ****   status = FLASH_WaitForLastOperation(ProgramTimeout);
 867:../StdPeripheralDriver/src/stm32f10x_flash.c ****   
 868:../StdPeripheralDriver/src/stm32f10x_flash.c ****   if(Address < FLASH_BANK1_END_ADDRESS)
 869:../StdPeripheralDriver/src/stm32f10x_flash.c ****   {
 870:../StdPeripheralDriver/src/stm32f10x_flash.c ****     if(status == FLASH_COMPLETE)
 871:../StdPeripheralDriver/src/stm32f10x_flash.c ****     {
 872:../StdPeripheralDriver/src/stm32f10x_flash.c ****       /* if the previous operation is completed, proceed to program the new data */
 873:../StdPeripheralDriver/src/stm32f10x_flash.c ****       FLASH->CR |= CR_PG_Set;
 874:../StdPeripheralDriver/src/stm32f10x_flash.c ****   
 875:../StdPeripheralDriver/src/stm32f10x_flash.c ****       *(__IO uint16_t*)Address = Data;
 876:../StdPeripheralDriver/src/stm32f10x_flash.c ****       /* Wait for last operation to be completed */
 877:../StdPeripheralDriver/src/stm32f10x_flash.c ****       status = FLASH_WaitForLastBank1Operation(ProgramTimeout);
 878:../StdPeripheralDriver/src/stm32f10x_flash.c **** 
 879:../StdPeripheralDriver/src/stm32f10x_flash.c ****       /* Disable the PG Bit */
 880:../StdPeripheralDriver/src/stm32f10x_flash.c ****       FLASH->CR &= CR_PG_Reset;
 881:../StdPeripheralDriver/src/stm32f10x_flash.c ****     }
 882:../StdPeripheralDriver/src/stm32f10x_flash.c ****   }
 883:../StdPeripheralDriver/src/stm32f10x_flash.c ****   else
 884:../StdPeripheralDriver/src/stm32f10x_flash.c ****   {
 885:../StdPeripheralDriver/src/stm32f10x_flash.c ****     if(status == FLASH_COMPLETE)
 886:../StdPeripheralDriver/src/stm32f10x_flash.c ****     {
 887:../StdPeripheralDriver/src/stm32f10x_flash.c ****       /* if the previous operation is completed, proceed to program the new data */
 888:../StdPeripheralDriver/src/stm32f10x_flash.c ****       FLASH->CR2 |= CR_PG_Set;
 889:../StdPeripheralDriver/src/stm32f10x_flash.c ****   
 890:../StdPeripheralDriver/src/stm32f10x_flash.c ****       *(__IO uint16_t*)Address = Data;
 891:../StdPeripheralDriver/src/stm32f10x_flash.c ****       /* Wait for last operation to be completed */
 892:../StdPeripheralDriver/src/stm32f10x_flash.c ****       status = FLASH_WaitForLastBank2Operation(ProgramTimeout);
 893:../StdPeripheralDriver/src/stm32f10x_flash.c **** 
 894:../StdPeripheralDriver/src/stm32f10x_flash.c ****       /* Disable the PG Bit */
 895:../StdPeripheralDriver/src/stm32f10x_flash.c ****       FLASH->CR2 &= CR_PG_Reset;
 896:../StdPeripheralDriver/src/stm32f10x_flash.c ****     }
 897:../StdPeripheralDriver/src/stm32f10x_flash.c ****   }
 898:../StdPeripheralDriver/src/stm32f10x_flash.c **** #else
 899:../StdPeripheralDriver/src/stm32f10x_flash.c ****   /* Wait for last operation to be completed */
 900:../StdPeripheralDriver/src/stm32f10x_flash.c ****   status = FLASH_WaitForLastOperation(ProgramTimeout);
 18803              		.loc 1 900 0
 18804 0012 4FF40050 		mov	r0, #8192
 18805 0016 FFF7FEFF 		bl	FLASH_WaitForLastOperation
 18806 001a 0346     		mov	r3, r0
 18807 001c FB73     		strb	r3, [r7, #15]
 901:../StdPeripheralDriver/src/stm32f10x_flash.c ****   
 902:../StdPeripheralDriver/src/stm32f10x_flash.c ****   if(status == FLASH_COMPLETE)
 18808              		.loc 1 902 0
 18809 001e FB7B     		ldrb	r3, [r7, #15]	@ zero_extendqisi2
 18810 0020 042B     		cmp	r3, #4
 18811 0022 16D1     		bne	.L46
 903:../StdPeripheralDriver/src/stm32f10x_flash.c ****   {
 904:../StdPeripheralDriver/src/stm32f10x_flash.c ****     /* if the previous operation is completed, proceed to program the new data */
 905:../StdPeripheralDriver/src/stm32f10x_flash.c ****     FLASH->CR |= CR_PG_Set;
 18812              		.loc 1 905 0
 18813 0024 0E4B     		ldr	r3, .L47
 18814 0026 0E4A     		ldr	r2, .L47
 18815 0028 1269     		ldr	r2, [r2, #16]
 18816 002a 42F00102 		orr	r2, r2, #1
 18817 002e 1A61     		str	r2, [r3, #16]
 906:../StdPeripheralDriver/src/stm32f10x_flash.c ****   
 907:../StdPeripheralDriver/src/stm32f10x_flash.c ****     *(__IO uint16_t*)Address = Data;
 18818              		.loc 1 907 0
 18819 0030 7B68     		ldr	r3, [r7, #4]
 18820 0032 7A88     		ldrh	r2, [r7, #2]	@ movhi
 18821 0034 1A80     		strh	r2, [r3, #0]	@ movhi
 908:../StdPeripheralDriver/src/stm32f10x_flash.c ****     /* Wait for last operation to be completed */
 909:../StdPeripheralDriver/src/stm32f10x_flash.c ****     status = FLASH_WaitForLastOperation(ProgramTimeout);
 18822              		.loc 1 909 0
 18823 0036 4FF40050 		mov	r0, #8192
 18824 003a FFF7FEFF 		bl	FLASH_WaitForLastOperation
 18825 003e 0346     		mov	r3, r0
 18826 0040 FB73     		strb	r3, [r7, #15]
 910:../StdPeripheralDriver/src/stm32f10x_flash.c ****     
 911:../StdPeripheralDriver/src/stm32f10x_flash.c ****     /* Disable the PG Bit */
 912:../StdPeripheralDriver/src/stm32f10x_flash.c ****     FLASH->CR &= CR_PG_Reset;
 18827              		.loc 1 912 0
 18828 0042 074A     		ldr	r2, .L47
 18829 0044 064B     		ldr	r3, .L47
 18830 0046 1969     		ldr	r1, [r3, #16]
 18831 0048 41F6FE73 		movw	r3, #8190
 18832 004c 01EA0303 		and	r3, r1, r3
 18833 0050 1361     		str	r3, [r2, #16]
 18834              	.L46:
 913:../StdPeripheralDriver/src/stm32f10x_flash.c ****   } 
 914:../StdPeripheralDriver/src/stm32f10x_flash.c **** #endif  /* STM32F10X_XL */
 915:../StdPeripheralDriver/src/stm32f10x_flash.c ****   
 916:../StdPeripheralDriver/src/stm32f10x_flash.c ****   /* Return the Program Status */
 917:../StdPeripheralDriver/src/stm32f10x_flash.c ****   return status;
 18835              		.loc 1 917 0
 18836 0052 FB7B     		ldrb	r3, [r7, #15]	@ zero_extendqisi2
 918:../StdPeripheralDriver/src/stm32f10x_flash.c **** }
 18837              		.loc 1 918 0
 18838 0054 1846     		mov	r0, r3
 18839 0056 07F11007 		add	r7, r7, #16
 18840 005a BD46     		mov	sp, r7
 18841 005c 80BD     		pop	{r7, pc}
 18842              	.L48:
 18843 005e 00BF     		.align	2
 18844              	.L47:
 18845 0060 00200240 		.word	1073881088
 18846              		.cfi_endproc
 18847              	.LFE41:
 18849              		.section	.text.FLASH_ProgramOptionByteData,"ax",%progbits
 18850              		.align	2
 18851              		.global	FLASH_ProgramOptionByteData
 18852              		.thumb
 18853              		.thumb_func
 18855              	FLASH_ProgramOptionByteData:
 18856              	.LFB42:
 919:../StdPeripheralDriver/src/stm32f10x_flash.c **** 
 920:../StdPeripheralDriver/src/stm32f10x_flash.c **** /**
 921:../StdPeripheralDriver/src/stm32f10x_flash.c ****   * @brief  Programs a half word at a specified Option Byte Data address.
 922:../StdPeripheralDriver/src/stm32f10x_flash.c ****   * @note   This function can be used for all STM32F10x devices.
 923:../StdPeripheralDriver/src/stm32f10x_flash.c ****   * @param  Address: specifies the address to be programmed.
 924:../StdPeripheralDriver/src/stm32f10x_flash.c ****   *   This parameter can be 0x1FFFF804 or 0x1FFFF806. 
 925:../StdPeripheralDriver/src/stm32f10x_flash.c ****   * @param  Data: specifies the data to be programmed.
 926:../StdPeripheralDriver/src/stm32f10x_flash.c ****   * @retval FLASH Status: The returned value can be: FLASH_ERROR_PG,
 927:../StdPeripheralDriver/src/stm32f10x_flash.c ****   *         FLASH_ERROR_WRP, FLASH_COMPLETE or FLASH_TIMEOUT. 
 928:../StdPeripheralDriver/src/stm32f10x_flash.c ****   */
 929:../StdPeripheralDriver/src/stm32f10x_flash.c **** FLASH_Status FLASH_ProgramOptionByteData(uint32_t Address, uint8_t Data)
 930:../StdPeripheralDriver/src/stm32f10x_flash.c **** {
 18857              		.loc 1 930 0
 18858              		.cfi_startproc
 18859              		@ args = 0, pretend = 0, frame = 16
 18860              		@ frame_needed = 1, uses_anonymous_args = 0
 18861 0000 80B5     		push	{r7, lr}
 18862              	.LCFI35:
 18863              		.cfi_def_cfa_offset 8
 18864 0002 84B0     		sub	sp, sp, #16
 18865              	.LCFI36:
 18866              		.cfi_def_cfa_offset 24
 18867 0004 00AF     		add	r7, sp, #0
 18868              		.cfi_offset 14, -4
 18869              		.cfi_offset 7, -8
 18870              	.LCFI37:
 18871              		.cfi_def_cfa_register 7
 18872 0006 7860     		str	r0, [r7, #4]
 18873 0008 0B46     		mov	r3, r1
 18874 000a FB70     		strb	r3, [r7, #3]
 931:../StdPeripheralDriver/src/stm32f10x_flash.c ****   FLASH_Status status = FLASH_COMPLETE;
 18875              		.loc 1 931 0
 18876 000c 4FF00403 		mov	r3, #4
 18877 0010 FB73     		strb	r3, [r7, #15]
 932:../StdPeripheralDriver/src/stm32f10x_flash.c ****   /* Check the parameters */
 933:../StdPeripheralDriver/src/stm32f10x_flash.c ****   assert_param(IS_OB_DATA_ADDRESS(Address));
 934:../StdPeripheralDriver/src/stm32f10x_flash.c ****   status = FLASH_WaitForLastOperation(ProgramTimeout);
 18878              		.loc 1 934 0
 18879 0012 4FF40050 		mov	r0, #8192
 18880 0016 FFF7FEFF 		bl	FLASH_WaitForLastOperation
 18881 001a 0346     		mov	r3, r0
 18882 001c FB73     		strb	r3, [r7, #15]
 935:../StdPeripheralDriver/src/stm32f10x_flash.c **** 
 936:../StdPeripheralDriver/src/stm32f10x_flash.c ****   if(status == FLASH_COMPLETE)
 18883              		.loc 1 936 0
 18884 001e FB7B     		ldrb	r3, [r7, #15]	@ zero_extendqisi2
 18885 0020 042B     		cmp	r3, #4
 18886 0022 20D1     		bne	.L50
 937:../StdPeripheralDriver/src/stm32f10x_flash.c ****   {
 938:../StdPeripheralDriver/src/stm32f10x_flash.c ****     /* Authorize the small information block programming */
 939:../StdPeripheralDriver/src/stm32f10x_flash.c ****     FLASH->OPTKEYR = FLASH_KEY1;
 18887              		.loc 1 939 0
 18888 0024 134B     		ldr	r3, .L51
 18889 0026 144A     		ldr	r2, .L51+4
 18890 0028 9A60     		str	r2, [r3, #8]
 940:../StdPeripheralDriver/src/stm32f10x_flash.c ****     FLASH->OPTKEYR = FLASH_KEY2;
 18891              		.loc 1 940 0
 18892 002a 124B     		ldr	r3, .L51
 18893 002c 134A     		ldr	r2, .L51+8
 18894 002e 9A60     		str	r2, [r3, #8]
 941:../StdPeripheralDriver/src/stm32f10x_flash.c ****     /* Enables the Option Bytes Programming operation */
 942:../StdPeripheralDriver/src/stm32f10x_flash.c ****     FLASH->CR |= CR_OPTPG_Set; 
 18895              		.loc 1 942 0
 18896 0030 104B     		ldr	r3, .L51
 18897 0032 104A     		ldr	r2, .L51
 18898 0034 1269     		ldr	r2, [r2, #16]
 18899 0036 42F01002 		orr	r2, r2, #16
 18900 003a 1A61     		str	r2, [r3, #16]
 943:../StdPeripheralDriver/src/stm32f10x_flash.c ****     *(__IO uint16_t*)Address = Data;
 18901              		.loc 1 943 0
 18902 003c 7B68     		ldr	r3, [r7, #4]
 18903 003e FA78     		ldrb	r2, [r7, #3]	@ zero_extendqisi2
 18904 0040 92B2     		uxth	r2, r2
 18905 0042 1A80     		strh	r2, [r3, #0]	@ movhi
 944:../StdPeripheralDriver/src/stm32f10x_flash.c ****     
 945:../StdPeripheralDriver/src/stm32f10x_flash.c ****     /* Wait for last operation to be completed */
 946:../StdPeripheralDriver/src/stm32f10x_flash.c ****     status = FLASH_WaitForLastOperation(ProgramTimeout);
 18906              		.loc 1 946 0
 18907 0044 4FF40050 		mov	r0, #8192
 18908 0048 FFF7FEFF 		bl	FLASH_WaitForLastOperation
 18909 004c 0346     		mov	r3, r0
 18910 004e FB73     		strb	r3, [r7, #15]
 947:../StdPeripheralDriver/src/stm32f10x_flash.c ****     if(status != FLASH_TIMEOUT)
 18911              		.loc 1 947 0
 18912 0050 FB7B     		ldrb	r3, [r7, #15]	@ zero_extendqisi2
 18913 0052 052B     		cmp	r3, #5
 18914 0054 07D0     		beq	.L50
 948:../StdPeripheralDriver/src/stm32f10x_flash.c ****     {
 949:../StdPeripheralDriver/src/stm32f10x_flash.c ****       /* if the program operation is completed, disable the OPTPG Bit */
 950:../StdPeripheralDriver/src/stm32f10x_flash.c ****       FLASH->CR &= CR_OPTPG_Reset;
 18915              		.loc 1 950 0
 18916 0056 074A     		ldr	r2, .L51
 18917 0058 064B     		ldr	r3, .L51
 18918 005a 1969     		ldr	r1, [r3, #16]
 18919 005c 41F6EF73 		movw	r3, #8175
 18920 0060 01EA0303 		and	r3, r1, r3
 18921 0064 1361     		str	r3, [r2, #16]
 18922              	.L50:
 951:../StdPeripheralDriver/src/stm32f10x_flash.c ****     }
 952:../StdPeripheralDriver/src/stm32f10x_flash.c ****   }
 953:../StdPeripheralDriver/src/stm32f10x_flash.c ****   /* Return the Option Byte Data Program Status */
 954:../StdPeripheralDriver/src/stm32f10x_flash.c ****   return status;
 18923              		.loc 1 954 0
 18924 0066 FB7B     		ldrb	r3, [r7, #15]	@ zero_extendqisi2
 955:../StdPeripheralDriver/src/stm32f10x_flash.c **** }
 18925              		.loc 1 955 0
 18926 0068 1846     		mov	r0, r3
 18927 006a 07F11007 		add	r7, r7, #16
 18928 006e BD46     		mov	sp, r7
 18929 0070 80BD     		pop	{r7, pc}
 18930              	.L52:
 18931 0072 00BF     		.align	2
 18932              	.L51:
 18933 0074 00200240 		.word	1073881088
 18934 0078 23016745 		.word	1164378403
 18935 007c AB89EFCD 		.word	-839939669
 18936              		.cfi_endproc
 18937              	.LFE42:
 18939              		.section	.text.FLASH_EnableWriteProtection,"ax",%progbits
 18940              		.align	2
 18941              		.global	FLASH_EnableWriteProtection
 18942              		.thumb
 18943              		.thumb_func
 18945              	FLASH_EnableWriteProtection:
 18946              	.LFB43:
 956:../StdPeripheralDriver/src/stm32f10x_flash.c **** 
 957:../StdPeripheralDriver/src/stm32f10x_flash.c **** /**
 958:../StdPeripheralDriver/src/stm32f10x_flash.c ****   * @brief  Write protects the desired pages
 959:../StdPeripheralDriver/src/stm32f10x_flash.c ****   * @note   This function can be used for all STM32F10x devices.
 960:../StdPeripheralDriver/src/stm32f10x_flash.c ****   * @param  FLASH_Pages: specifies the address of the pages to be write protected.
 961:../StdPeripheralDriver/src/stm32f10x_flash.c ****   *   This parameter can be:
 962:../StdPeripheralDriver/src/stm32f10x_flash.c ****   *     @arg For @b STM32_Low-density_devices: value between FLASH_WRProt_Pages0to3 and FLASH_WRPro
 963:../StdPeripheralDriver/src/stm32f10x_flash.c ****   *     @arg For @b STM32_Medium-density_devices: value between FLASH_WRProt_Pages0to3
 964:../StdPeripheralDriver/src/stm32f10x_flash.c ****   *       and FLASH_WRProt_Pages124to127
 965:../StdPeripheralDriver/src/stm32f10x_flash.c ****   *     @arg For @b STM32_High-density_devices: value between FLASH_WRProt_Pages0to1 and
 966:../StdPeripheralDriver/src/stm32f10x_flash.c ****   *       FLASH_WRProt_Pages60to61 or FLASH_WRProt_Pages62to255
 967:../StdPeripheralDriver/src/stm32f10x_flash.c ****   *     @arg For @b STM32_Connectivity_line_devices: value between FLASH_WRProt_Pages0to1 and
 968:../StdPeripheralDriver/src/stm32f10x_flash.c ****   *       FLASH_WRProt_Pages60to61 or FLASH_WRProt_Pages62to127    
 969:../StdPeripheralDriver/src/stm32f10x_flash.c ****   *     @arg For @b STM32_XL-density_devices: value between FLASH_WRProt_Pages0to1 and
 970:../StdPeripheralDriver/src/stm32f10x_flash.c ****   *       FLASH_WRProt_Pages60to61 or FLASH_WRProt_Pages62to511
 971:../StdPeripheralDriver/src/stm32f10x_flash.c ****   *     @arg FLASH_WRProt_AllPages
 972:../StdPeripheralDriver/src/stm32f10x_flash.c ****   * @retval FLASH Status: The returned value can be: FLASH_ERROR_PG,
 973:../StdPeripheralDriver/src/stm32f10x_flash.c ****   *         FLASH_ERROR_WRP, FLASH_COMPLETE or FLASH_TIMEOUT.
 974:../StdPeripheralDriver/src/stm32f10x_flash.c ****   */
 975:../StdPeripheralDriver/src/stm32f10x_flash.c **** FLASH_Status FLASH_EnableWriteProtection(uint32_t FLASH_Pages)
 976:../StdPeripheralDriver/src/stm32f10x_flash.c **** {
 18947              		.loc 1 976 0
 18948              		.cfi_startproc
 18949              		@ args = 0, pretend = 0, frame = 24
 18950              		@ frame_needed = 1, uses_anonymous_args = 0
 18951 0000 80B5     		push	{r7, lr}
 18952              	.LCFI38:
 18953              		.cfi_def_cfa_offset 8
 18954 0002 86B0     		sub	sp, sp, #24
 18955              	.LCFI39:
 18956              		.cfi_def_cfa_offset 32
 18957 0004 00AF     		add	r7, sp, #0
 18958              		.cfi_offset 14, -4
 18959              		.cfi_offset 7, -8
 18960              	.LCFI40:
 18961              		.cfi_def_cfa_register 7
 18962 0006 7860     		str	r0, [r7, #4]
 977:../StdPeripheralDriver/src/stm32f10x_flash.c ****   uint16_t WRP0_Data = 0xFFFF, WRP1_Data = 0xFFFF, WRP2_Data = 0xFFFF, WRP3_Data = 0xFFFF;
 18963              		.loc 1 977 0
 18964 0008 4FF6FF73 		movw	r3, #65535
 18965 000c BB82     		strh	r3, [r7, #20]	@ movhi
 18966 000e 4FF6FF73 		movw	r3, #65535
 18967 0012 7B82     		strh	r3, [r7, #18]	@ movhi
 18968 0014 4FF6FF73 		movw	r3, #65535
 18969 0018 3B82     		strh	r3, [r7, #16]	@ movhi
 18970 001a 4FF6FF73 		movw	r3, #65535
 18971 001e FB81     		strh	r3, [r7, #14]	@ movhi
 978:../StdPeripheralDriver/src/stm32f10x_flash.c ****   
 979:../StdPeripheralDriver/src/stm32f10x_flash.c ****   FLASH_Status status = FLASH_COMPLETE;
 18972              		.loc 1 979 0
 18973 0020 4FF00403 		mov	r3, #4
 18974 0024 FB75     		strb	r3, [r7, #23]
 980:../StdPeripheralDriver/src/stm32f10x_flash.c ****   
 981:../StdPeripheralDriver/src/stm32f10x_flash.c ****   /* Check the parameters */
 982:../StdPeripheralDriver/src/stm32f10x_flash.c ****   assert_param(IS_FLASH_WRPROT_PAGE(FLASH_Pages));
 983:../StdPeripheralDriver/src/stm32f10x_flash.c ****   
 984:../StdPeripheralDriver/src/stm32f10x_flash.c ****   FLASH_Pages = (uint32_t)(~FLASH_Pages);
 18975              		.loc 1 984 0
 18976 0026 7B68     		ldr	r3, [r7, #4]
 18977 0028 6FEA0303 		mvn	r3, r3
 18978 002c 7B60     		str	r3, [r7, #4]
 985:../StdPeripheralDriver/src/stm32f10x_flash.c ****   WRP0_Data = (uint16_t)(FLASH_Pages & WRP0_Mask);
 18979              		.loc 1 985 0
 18980 002e 7B68     		ldr	r3, [r7, #4]
 18981 0030 9BB2     		uxth	r3, r3
 18982 0032 03F0FF03 		and	r3, r3, #255
 18983 0036 BB82     		strh	r3, [r7, #20]	@ movhi
 986:../StdPeripheralDriver/src/stm32f10x_flash.c ****   WRP1_Data = (uint16_t)((FLASH_Pages & WRP1_Mask) >> 8);
 18984              		.loc 1 986 0
 18985 0038 7B68     		ldr	r3, [r7, #4]
 18986 003a 03F47F43 		and	r3, r3, #65280
 18987 003e 4FEA1323 		lsr	r3, r3, #8
 18988 0042 7B82     		strh	r3, [r7, #18]	@ movhi
 987:../StdPeripheralDriver/src/stm32f10x_flash.c ****   WRP2_Data = (uint16_t)((FLASH_Pages & WRP2_Mask) >> 16);
 18989              		.loc 1 987 0
 18990 0044 7B68     		ldr	r3, [r7, #4]
 18991 0046 03F47F03 		and	r3, r3, #16711680
 18992 004a 4FEA1343 		lsr	r3, r3, #16
 18993 004e 3B82     		strh	r3, [r7, #16]	@ movhi
 988:../StdPeripheralDriver/src/stm32f10x_flash.c ****   WRP3_Data = (uint16_t)((FLASH_Pages & WRP3_Mask) >> 24);
 18994              		.loc 1 988 0
 18995 0050 7B68     		ldr	r3, [r7, #4]
 18996 0052 4FEA1363 		lsr	r3, r3, #24
 18997 0056 FB81     		strh	r3, [r7, #14]	@ movhi
 989:../StdPeripheralDriver/src/stm32f10x_flash.c ****   
 990:../StdPeripheralDriver/src/stm32f10x_flash.c ****   /* Wait for last operation to be completed */
 991:../StdPeripheralDriver/src/stm32f10x_flash.c ****   status = FLASH_WaitForLastOperation(ProgramTimeout);
 18998              		.loc 1 991 0
 18999 0058 4FF40050 		mov	r0, #8192
 19000 005c FFF7FEFF 		bl	FLASH_WaitForLastOperation
 19001 0060 0346     		mov	r3, r0
 19002 0062 FB75     		strb	r3, [r7, #23]
 992:../StdPeripheralDriver/src/stm32f10x_flash.c ****   
 993:../StdPeripheralDriver/src/stm32f10x_flash.c ****   if(status == FLASH_COMPLETE)
 19003              		.loc 1 993 0
 19004 0064 FB7D     		ldrb	r3, [r7, #23]	@ zero_extendqisi2
 19005 0066 042B     		cmp	r3, #4
 19006 0068 4FD1     		bne	.L54
 994:../StdPeripheralDriver/src/stm32f10x_flash.c ****   {
 995:../StdPeripheralDriver/src/stm32f10x_flash.c ****     /* Authorizes the small information block programming */
 996:../StdPeripheralDriver/src/stm32f10x_flash.c ****     FLASH->OPTKEYR = FLASH_KEY1;
 19007              		.loc 1 996 0
 19008 006a 2B4B     		ldr	r3, .L59
 19009 006c 2B4A     		ldr	r2, .L59+4
 19010 006e 9A60     		str	r2, [r3, #8]
 997:../StdPeripheralDriver/src/stm32f10x_flash.c ****     FLASH->OPTKEYR = FLASH_KEY2;
 19011              		.loc 1 997 0
 19012 0070 294B     		ldr	r3, .L59
 19013 0072 2B4A     		ldr	r2, .L59+8
 19014 0074 9A60     		str	r2, [r3, #8]
 998:../StdPeripheralDriver/src/stm32f10x_flash.c ****     FLASH->CR |= CR_OPTPG_Set;
 19015              		.loc 1 998 0
 19016 0076 284B     		ldr	r3, .L59
 19017 0078 274A     		ldr	r2, .L59
 19018 007a 1269     		ldr	r2, [r2, #16]
 19019 007c 42F01002 		orr	r2, r2, #16
 19020 0080 1A61     		str	r2, [r3, #16]
 999:../StdPeripheralDriver/src/stm32f10x_flash.c ****     if(WRP0_Data != 0xFF)
 19021              		.loc 1 999 0
 19022 0082 BB8A     		ldrh	r3, [r7, #20]
 19023 0084 FF2B     		cmp	r3, #255
 19024 0086 08D0     		beq	.L55
1000:../StdPeripheralDriver/src/stm32f10x_flash.c ****     {
1001:../StdPeripheralDriver/src/stm32f10x_flash.c ****       OB->WRP0 = WRP0_Data;
 19025              		.loc 1 1001 0
 19026 0088 264B     		ldr	r3, .L59+12
 19027 008a BA8A     		ldrh	r2, [r7, #20]	@ movhi
 19028 008c 1A81     		strh	r2, [r3, #8]	@ movhi
1002:../StdPeripheralDriver/src/stm32f10x_flash.c ****       
1003:../StdPeripheralDriver/src/stm32f10x_flash.c ****       /* Wait for last operation to be completed */
1004:../StdPeripheralDriver/src/stm32f10x_flash.c ****       status = FLASH_WaitForLastOperation(ProgramTimeout);
 19029              		.loc 1 1004 0
 19030 008e 4FF40050 		mov	r0, #8192
 19031 0092 FFF7FEFF 		bl	FLASH_WaitForLastOperation
 19032 0096 0346     		mov	r3, r0
 19033 0098 FB75     		strb	r3, [r7, #23]
 19034              	.L55:
1005:../StdPeripheralDriver/src/stm32f10x_flash.c ****     }
1006:../StdPeripheralDriver/src/stm32f10x_flash.c ****     if((status == FLASH_COMPLETE) && (WRP1_Data != 0xFF))
 19035              		.loc 1 1006 0
 19036 009a FB7D     		ldrb	r3, [r7, #23]	@ zero_extendqisi2
 19037 009c 042B     		cmp	r3, #4
 19038 009e 0BD1     		bne	.L56
 19039              		.loc 1 1006 0 is_stmt 0 discriminator 1
 19040 00a0 7B8A     		ldrh	r3, [r7, #18]
 19041 00a2 FF2B     		cmp	r3, #255
 19042 00a4 08D0     		beq	.L56
1007:../StdPeripheralDriver/src/stm32f10x_flash.c ****     {
1008:../StdPeripheralDriver/src/stm32f10x_flash.c ****       OB->WRP1 = WRP1_Data;
 19043              		.loc 1 1008 0 is_stmt 1
 19044 00a6 1F4B     		ldr	r3, .L59+12
 19045 00a8 7A8A     		ldrh	r2, [r7, #18]	@ movhi
 19046 00aa 5A81     		strh	r2, [r3, #10]	@ movhi
1009:../StdPeripheralDriver/src/stm32f10x_flash.c ****       
1010:../StdPeripheralDriver/src/stm32f10x_flash.c ****       /* Wait for last operation to be completed */
1011:../StdPeripheralDriver/src/stm32f10x_flash.c ****       status = FLASH_WaitForLastOperation(ProgramTimeout);
 19047              		.loc 1 1011 0
 19048 00ac 4FF40050 		mov	r0, #8192
 19049 00b0 FFF7FEFF 		bl	FLASH_WaitForLastOperation
 19050 00b4 0346     		mov	r3, r0
 19051 00b6 FB75     		strb	r3, [r7, #23]
 19052              	.L56:
1012:../StdPeripheralDriver/src/stm32f10x_flash.c ****     }
1013:../StdPeripheralDriver/src/stm32f10x_flash.c ****     if((status == FLASH_COMPLETE) && (WRP2_Data != 0xFF))
 19053              		.loc 1 1013 0
 19054 00b8 FB7D     		ldrb	r3, [r7, #23]	@ zero_extendqisi2
 19055 00ba 042B     		cmp	r3, #4
 19056 00bc 0BD1     		bne	.L57
 19057              		.loc 1 1013 0 is_stmt 0 discriminator 1
 19058 00be 3B8A     		ldrh	r3, [r7, #16]
 19059 00c0 FF2B     		cmp	r3, #255
 19060 00c2 08D0     		beq	.L57
1014:../StdPeripheralDriver/src/stm32f10x_flash.c ****     {
1015:../StdPeripheralDriver/src/stm32f10x_flash.c ****       OB->WRP2 = WRP2_Data;
 19061              		.loc 1 1015 0 is_stmt 1
 19062 00c4 174B     		ldr	r3, .L59+12
 19063 00c6 3A8A     		ldrh	r2, [r7, #16]	@ movhi
 19064 00c8 9A81     		strh	r2, [r3, #12]	@ movhi
1016:../StdPeripheralDriver/src/stm32f10x_flash.c ****       
1017:../StdPeripheralDriver/src/stm32f10x_flash.c ****       /* Wait for last operation to be completed */
1018:../StdPeripheralDriver/src/stm32f10x_flash.c ****       status = FLASH_WaitForLastOperation(ProgramTimeout);
 19065              		.loc 1 1018 0
 19066 00ca 4FF40050 		mov	r0, #8192
 19067 00ce FFF7FEFF 		bl	FLASH_WaitForLastOperation
 19068 00d2 0346     		mov	r3, r0
 19069 00d4 FB75     		strb	r3, [r7, #23]
 19070              	.L57:
1019:../StdPeripheralDriver/src/stm32f10x_flash.c ****     }
1020:../StdPeripheralDriver/src/stm32f10x_flash.c ****     
1021:../StdPeripheralDriver/src/stm32f10x_flash.c ****     if((status == FLASH_COMPLETE)&& (WRP3_Data != 0xFF))
 19071              		.loc 1 1021 0
 19072 00d6 FB7D     		ldrb	r3, [r7, #23]	@ zero_extendqisi2
 19073 00d8 042B     		cmp	r3, #4
 19074 00da 0BD1     		bne	.L58
 19075              		.loc 1 1021 0 is_stmt 0 discriminator 1
 19076 00dc FB89     		ldrh	r3, [r7, #14]
 19077 00de FF2B     		cmp	r3, #255
 19078 00e0 08D0     		beq	.L58
1022:../StdPeripheralDriver/src/stm32f10x_flash.c ****     {
1023:../StdPeripheralDriver/src/stm32f10x_flash.c ****       OB->WRP3 = WRP3_Data;
 19079              		.loc 1 1023 0 is_stmt 1
 19080 00e2 104B     		ldr	r3, .L59+12
 19081 00e4 FA89     		ldrh	r2, [r7, #14]	@ movhi
 19082 00e6 DA81     		strh	r2, [r3, #14]	@ movhi
1024:../StdPeripheralDriver/src/stm32f10x_flash.c ****      
1025:../StdPeripheralDriver/src/stm32f10x_flash.c ****       /* Wait for last operation to be completed */
1026:../StdPeripheralDriver/src/stm32f10x_flash.c ****       status = FLASH_WaitForLastOperation(ProgramTimeout);
 19083              		.loc 1 1026 0
 19084 00e8 4FF40050 		mov	r0, #8192
 19085 00ec FFF7FEFF 		bl	FLASH_WaitForLastOperation
 19086 00f0 0346     		mov	r3, r0
 19087 00f2 FB75     		strb	r3, [r7, #23]
 19088              	.L58:
1027:../StdPeripheralDriver/src/stm32f10x_flash.c ****     }
1028:../StdPeripheralDriver/src/stm32f10x_flash.c ****           
1029:../StdPeripheralDriver/src/stm32f10x_flash.c ****     if(status != FLASH_TIMEOUT)
 19089              		.loc 1 1029 0
 19090 00f4 FB7D     		ldrb	r3, [r7, #23]	@ zero_extendqisi2
 19091 00f6 052B     		cmp	r3, #5
 19092 00f8 07D0     		beq	.L54
1030:../StdPeripheralDriver/src/stm32f10x_flash.c ****     {
1031:../StdPeripheralDriver/src/stm32f10x_flash.c ****       /* if the program operation is completed, disable the OPTPG Bit */
1032:../StdPeripheralDriver/src/stm32f10x_flash.c ****       FLASH->CR &= CR_OPTPG_Reset;
 19093              		.loc 1 1032 0
 19094 00fa 074A     		ldr	r2, .L59
 19095 00fc 064B     		ldr	r3, .L59
 19096 00fe 1969     		ldr	r1, [r3, #16]
 19097 0100 41F6EF73 		movw	r3, #8175
 19098 0104 01EA0303 		and	r3, r1, r3
 19099 0108 1361     		str	r3, [r2, #16]
 19100              	.L54:
1033:../StdPeripheralDriver/src/stm32f10x_flash.c ****     }
1034:../StdPeripheralDriver/src/stm32f10x_flash.c ****   } 
1035:../StdPeripheralDriver/src/stm32f10x_flash.c ****   /* Return the write protection operation Status */
1036:../StdPeripheralDriver/src/stm32f10x_flash.c ****   return status;       
 19101              		.loc 1 1036 0
 19102 010a FB7D     		ldrb	r3, [r7, #23]	@ zero_extendqisi2
1037:../StdPeripheralDriver/src/stm32f10x_flash.c **** }
 19103              		.loc 1 1037 0
 19104 010c 1846     		mov	r0, r3
 19105 010e 07F11807 		add	r7, r7, #24
 19106 0112 BD46     		mov	sp, r7
 19107 0114 80BD     		pop	{r7, pc}
 19108              	.L60:
 19109 0116 00BF     		.align	2
 19110              	.L59:
 19111 0118 00200240 		.word	1073881088
 19112 011c 23016745 		.word	1164378403
 19113 0120 AB89EFCD 		.word	-839939669
 19114 0124 00F8FF1F 		.word	536868864
 19115              		.cfi_endproc
 19116              	.LFE43:
 19118              		.section	.text.FLASH_ReadOutProtection,"ax",%progbits
 19119              		.align	2
 19120              		.global	FLASH_ReadOutProtection
 19121              		.thumb
 19122              		.thumb_func
 19124              	FLASH_ReadOutProtection:
 19125              	.LFB44:
1038:../StdPeripheralDriver/src/stm32f10x_flash.c **** 
1039:../StdPeripheralDriver/src/stm32f10x_flash.c **** /**
1040:../StdPeripheralDriver/src/stm32f10x_flash.c ****   * @brief  Enables or disables the read out protection.
1041:../StdPeripheralDriver/src/stm32f10x_flash.c ****   * @note   If the user has already programmed the other option bytes before calling 
1042:../StdPeripheralDriver/src/stm32f10x_flash.c ****   *   this function, he must re-program them since this function erases all option bytes.
1043:../StdPeripheralDriver/src/stm32f10x_flash.c ****   * @note   This function can be used for all STM32F10x devices.
1044:../StdPeripheralDriver/src/stm32f10x_flash.c ****   * @param  Newstate: new state of the ReadOut Protection.
1045:../StdPeripheralDriver/src/stm32f10x_flash.c ****   *   This parameter can be: ENABLE or DISABLE.
1046:../StdPeripheralDriver/src/stm32f10x_flash.c ****   * @retval FLASH Status: The returned value can be: FLASH_ERROR_PG,
1047:../StdPeripheralDriver/src/stm32f10x_flash.c ****   *         FLASH_ERROR_WRP, FLASH_COMPLETE or FLASH_TIMEOUT.
1048:../StdPeripheralDriver/src/stm32f10x_flash.c ****   */
1049:../StdPeripheralDriver/src/stm32f10x_flash.c **** FLASH_Status FLASH_ReadOutProtection(FunctionalState NewState)
1050:../StdPeripheralDriver/src/stm32f10x_flash.c **** {
 19126              		.loc 1 1050 0
 19127              		.cfi_startproc
 19128              		@ args = 0, pretend = 0, frame = 16
 19129              		@ frame_needed = 1, uses_anonymous_args = 0
 19130 0000 80B5     		push	{r7, lr}
 19131              	.LCFI41:
 19132              		.cfi_def_cfa_offset 8
 19133 0002 84B0     		sub	sp, sp, #16
 19134              	.LCFI42:
 19135              		.cfi_def_cfa_offset 24
 19136 0004 00AF     		add	r7, sp, #0
 19137              		.cfi_offset 14, -4
 19138              		.cfi_offset 7, -8
 19139              	.LCFI43:
 19140              		.cfi_def_cfa_register 7
 19141 0006 0346     		mov	r3, r0
 19142 0008 FB71     		strb	r3, [r7, #7]
1051:../StdPeripheralDriver/src/stm32f10x_flash.c ****   FLASH_Status status = FLASH_COMPLETE;
 19143              		.loc 1 1051 0
 19144 000a 4FF00403 		mov	r3, #4
 19145 000e FB73     		strb	r3, [r7, #15]
1052:../StdPeripheralDriver/src/stm32f10x_flash.c ****   /* Check the parameters */
1053:../StdPeripheralDriver/src/stm32f10x_flash.c ****   assert_param(IS_FUNCTIONAL_STATE(NewState));
1054:../StdPeripheralDriver/src/stm32f10x_flash.c ****   status = FLASH_WaitForLastOperation(EraseTimeout);
 19146              		.loc 1 1054 0
 19147 0010 4FF43020 		mov	r0, #720896
 19148 0014 FFF7FEFF 		bl	FLASH_WaitForLastOperation
 19149 0018 0346     		mov	r3, r0
 19150 001a FB73     		strb	r3, [r7, #15]
1055:../StdPeripheralDriver/src/stm32f10x_flash.c ****   if(status == FLASH_COMPLETE)
 19151              		.loc 1 1055 0
 19152 001c FB7B     		ldrb	r3, [r7, #15]	@ zero_extendqisi2
 19153 001e 042B     		cmp	r3, #4
 19154 0020 51D1     		bne	.L62
1056:../StdPeripheralDriver/src/stm32f10x_flash.c ****   {
1057:../StdPeripheralDriver/src/stm32f10x_flash.c ****     /* Authorizes the small information block programming */
1058:../StdPeripheralDriver/src/stm32f10x_flash.c ****     FLASH->OPTKEYR = FLASH_KEY1;
 19155              		.loc 1 1058 0
 19156 0022 2C4B     		ldr	r3, .L66
 19157 0024 2C4A     		ldr	r2, .L66+4
 19158 0026 9A60     		str	r2, [r3, #8]
1059:../StdPeripheralDriver/src/stm32f10x_flash.c ****     FLASH->OPTKEYR = FLASH_KEY2;
 19159              		.loc 1 1059 0
 19160 0028 2A4B     		ldr	r3, .L66
 19161 002a 2C4A     		ldr	r2, .L66+8
 19162 002c 9A60     		str	r2, [r3, #8]
1060:../StdPeripheralDriver/src/stm32f10x_flash.c ****     FLASH->CR |= CR_OPTER_Set;
 19163              		.loc 1 1060 0
 19164 002e 294B     		ldr	r3, .L66
 19165 0030 284A     		ldr	r2, .L66
 19166 0032 1269     		ldr	r2, [r2, #16]
 19167 0034 42F02002 		orr	r2, r2, #32
 19168 0038 1A61     		str	r2, [r3, #16]
1061:../StdPeripheralDriver/src/stm32f10x_flash.c ****     FLASH->CR |= CR_STRT_Set;
 19169              		.loc 1 1061 0
 19170 003a 264B     		ldr	r3, .L66
 19171 003c 254A     		ldr	r2, .L66
 19172 003e 1269     		ldr	r2, [r2, #16]
 19173 0040 42F04002 		orr	r2, r2, #64
 19174 0044 1A61     		str	r2, [r3, #16]
1062:../StdPeripheralDriver/src/stm32f10x_flash.c ****     /* Wait for last operation to be completed */
1063:../StdPeripheralDriver/src/stm32f10x_flash.c ****     status = FLASH_WaitForLastOperation(EraseTimeout);
 19175              		.loc 1 1063 0
 19176 0046 4FF43020 		mov	r0, #720896
 19177 004a FFF7FEFF 		bl	FLASH_WaitForLastOperation
 19178 004e 0346     		mov	r3, r0
 19179 0050 FB73     		strb	r3, [r7, #15]
1064:../StdPeripheralDriver/src/stm32f10x_flash.c ****     if(status == FLASH_COMPLETE)
 19180              		.loc 1 1064 0
 19181 0052 FB7B     		ldrb	r3, [r7, #15]	@ zero_extendqisi2
 19182 0054 042B     		cmp	r3, #4
 19183 0056 2BD1     		bne	.L63
1065:../StdPeripheralDriver/src/stm32f10x_flash.c ****     {
1066:../StdPeripheralDriver/src/stm32f10x_flash.c ****       /* if the erase operation is completed, disable the OPTER Bit */
1067:../StdPeripheralDriver/src/stm32f10x_flash.c ****       FLASH->CR &= CR_OPTER_Reset;
 19184              		.loc 1 1067 0
 19185 0058 1E4A     		ldr	r2, .L66
 19186 005a 1E4B     		ldr	r3, .L66
 19187 005c 1969     		ldr	r1, [r3, #16]
 19188 005e 41F6DF73 		movw	r3, #8159
 19189 0062 01EA0303 		and	r3, r1, r3
 19190 0066 1361     		str	r3, [r2, #16]
1068:../StdPeripheralDriver/src/stm32f10x_flash.c ****       /* Enable the Option Bytes Programming operation */
1069:../StdPeripheralDriver/src/stm32f10x_flash.c ****       FLASH->CR |= CR_OPTPG_Set; 
 19191              		.loc 1 1069 0
 19192 0068 1A4B     		ldr	r3, .L66
 19193 006a 1A4A     		ldr	r2, .L66
 19194 006c 1269     		ldr	r2, [r2, #16]
 19195 006e 42F01002 		orr	r2, r2, #16
 19196 0072 1A61     		str	r2, [r3, #16]
1070:../StdPeripheralDriver/src/stm32f10x_flash.c ****       if(NewState != DISABLE)
 19197              		.loc 1 1070 0
 19198 0074 FB79     		ldrb	r3, [r7, #7]	@ zero_extendqisi2
 19199 0076 002B     		cmp	r3, #0
 19200 0078 04D0     		beq	.L64
1071:../StdPeripheralDriver/src/stm32f10x_flash.c ****       {
1072:../StdPeripheralDriver/src/stm32f10x_flash.c ****         OB->RDP = 0x00;
 19201              		.loc 1 1072 0
 19202 007a 194B     		ldr	r3, .L66+12
 19203 007c 4FF00002 		mov	r2, #0
 19204 0080 1A80     		strh	r2, [r3, #0]	@ movhi
 19205 0082 03E0     		b	.L65
 19206              	.L64:
1073:../StdPeripheralDriver/src/stm32f10x_flash.c ****       }
1074:../StdPeripheralDriver/src/stm32f10x_flash.c ****       else
1075:../StdPeripheralDriver/src/stm32f10x_flash.c ****       {
1076:../StdPeripheralDriver/src/stm32f10x_flash.c ****         OB->RDP = RDP_Key;  
 19207              		.loc 1 1076 0
 19208 0084 164B     		ldr	r3, .L66+12
 19209 0086 4FF0A502 		mov	r2, #165
 19210 008a 1A80     		strh	r2, [r3, #0]	@ movhi
 19211              	.L65:
1077:../StdPeripheralDriver/src/stm32f10x_flash.c ****       }
1078:../StdPeripheralDriver/src/stm32f10x_flash.c ****       /* Wait for last operation to be completed */
1079:../StdPeripheralDriver/src/stm32f10x_flash.c ****       status = FLASH_WaitForLastOperation(EraseTimeout); 
 19212              		.loc 1 1079 0
 19213 008c 4FF43020 		mov	r0, #720896
 19214 0090 FFF7FEFF 		bl	FLASH_WaitForLastOperation
 19215 0094 0346     		mov	r3, r0
 19216 0096 FB73     		strb	r3, [r7, #15]
1080:../StdPeripheralDriver/src/stm32f10x_flash.c ****     
1081:../StdPeripheralDriver/src/stm32f10x_flash.c ****       if(status != FLASH_TIMEOUT)
 19217              		.loc 1 1081 0
 19218 0098 FB7B     		ldrb	r3, [r7, #15]	@ zero_extendqisi2
 19219 009a 052B     		cmp	r3, #5
 19220 009c 13D0     		beq	.L62
1082:../StdPeripheralDriver/src/stm32f10x_flash.c ****       {
1083:../StdPeripheralDriver/src/stm32f10x_flash.c ****         /* if the program operation is completed, disable the OPTPG Bit */
1084:../StdPeripheralDriver/src/stm32f10x_flash.c ****         FLASH->CR &= CR_OPTPG_Reset;
 19221              		.loc 1 1084 0
 19222 009e 0D4A     		ldr	r2, .L66
 19223 00a0 0C4B     		ldr	r3, .L66
 19224 00a2 1969     		ldr	r1, [r3, #16]
 19225 00a4 41F6EF73 		movw	r3, #8175
 19226 00a8 01EA0303 		and	r3, r1, r3
 19227 00ac 1361     		str	r3, [r2, #16]
 19228 00ae 0AE0     		b	.L62
 19229              	.L63:
1085:../StdPeripheralDriver/src/stm32f10x_flash.c ****       }
1086:../StdPeripheralDriver/src/stm32f10x_flash.c ****     }
1087:../StdPeripheralDriver/src/stm32f10x_flash.c ****     else 
1088:../StdPeripheralDriver/src/stm32f10x_flash.c ****     {
1089:../StdPeripheralDriver/src/stm32f10x_flash.c ****       if(status != FLASH_TIMEOUT)
 19230              		.loc 1 1089 0
 19231 00b0 FB7B     		ldrb	r3, [r7, #15]	@ zero_extendqisi2
 19232 00b2 052B     		cmp	r3, #5
 19233 00b4 07D0     		beq	.L62
1090:../StdPeripheralDriver/src/stm32f10x_flash.c ****       {
1091:../StdPeripheralDriver/src/stm32f10x_flash.c ****         /* Disable the OPTER Bit */
1092:../StdPeripheralDriver/src/stm32f10x_flash.c ****         FLASH->CR &= CR_OPTER_Reset;
 19234              		.loc 1 1092 0
 19235 00b6 074A     		ldr	r2, .L66
 19236 00b8 064B     		ldr	r3, .L66
 19237 00ba 1969     		ldr	r1, [r3, #16]
 19238 00bc 41F6DF73 		movw	r3, #8159
 19239 00c0 01EA0303 		and	r3, r1, r3
 19240 00c4 1361     		str	r3, [r2, #16]
 19241              	.L62:
1093:../StdPeripheralDriver/src/stm32f10x_flash.c ****       }
1094:../StdPeripheralDriver/src/stm32f10x_flash.c ****     }
1095:../StdPeripheralDriver/src/stm32f10x_flash.c ****   }
1096:../StdPeripheralDriver/src/stm32f10x_flash.c ****   /* Return the protection operation Status */
1097:../StdPeripheralDriver/src/stm32f10x_flash.c ****   return status;       
 19242              		.loc 1 1097 0
 19243 00c6 FB7B     		ldrb	r3, [r7, #15]	@ zero_extendqisi2
1098:../StdPeripheralDriver/src/stm32f10x_flash.c **** }
 19244              		.loc 1 1098 0
 19245 00c8 1846     		mov	r0, r3
 19246 00ca 07F11007 		add	r7, r7, #16
 19247 00ce BD46     		mov	sp, r7
 19248 00d0 80BD     		pop	{r7, pc}
 19249              	.L67:
 19250 00d2 00BF     		.align	2
 19251              	.L66:
 19252 00d4 00200240 		.word	1073881088
 19253 00d8 23016745 		.word	1164378403
 19254 00dc AB89EFCD 		.word	-839939669
 19255 00e0 00F8FF1F 		.word	536868864
 19256              		.cfi_endproc
 19257              	.LFE44:
 19259              		.section	.text.FLASH_UserOptionByteConfig,"ax",%progbits
 19260              		.align	2
 19261              		.global	FLASH_UserOptionByteConfig
 19262              		.thumb
 19263              		.thumb_func
 19265              	FLASH_UserOptionByteConfig:
 19266              	.LFB45:
1099:../StdPeripheralDriver/src/stm32f10x_flash.c **** 
1100:../StdPeripheralDriver/src/stm32f10x_flash.c **** /**
1101:../StdPeripheralDriver/src/stm32f10x_flash.c ****   * @brief  Programs the FLASH User Option Byte: IWDG_SW / RST_STOP / RST_STDBY.
1102:../StdPeripheralDriver/src/stm32f10x_flash.c ****   * @note   This function can be used for all STM32F10x devices.
1103:../StdPeripheralDriver/src/stm32f10x_flash.c ****   * @param  OB_IWDG: Selects the IWDG mode
1104:../StdPeripheralDriver/src/stm32f10x_flash.c ****   *   This parameter can be one of the following values:
1105:../StdPeripheralDriver/src/stm32f10x_flash.c ****   *     @arg OB_IWDG_SW: Software IWDG selected
1106:../StdPeripheralDriver/src/stm32f10x_flash.c ****   *     @arg OB_IWDG_HW: Hardware IWDG selected
1107:../StdPeripheralDriver/src/stm32f10x_flash.c ****   * @param  OB_STOP: Reset event when entering STOP mode.
1108:../StdPeripheralDriver/src/stm32f10x_flash.c ****   *   This parameter can be one of the following values:
1109:../StdPeripheralDriver/src/stm32f10x_flash.c ****   *     @arg OB_STOP_NoRST: No reset generated when entering in STOP
1110:../StdPeripheralDriver/src/stm32f10x_flash.c ****   *     @arg OB_STOP_RST: Reset generated when entering in STOP
1111:../StdPeripheralDriver/src/stm32f10x_flash.c ****   * @param  OB_STDBY: Reset event when entering Standby mode.
1112:../StdPeripheralDriver/src/stm32f10x_flash.c ****   *   This parameter can be one of the following values:
1113:../StdPeripheralDriver/src/stm32f10x_flash.c ****   *     @arg OB_STDBY_NoRST: No reset generated when entering in STANDBY
1114:../StdPeripheralDriver/src/stm32f10x_flash.c ****   *     @arg OB_STDBY_RST: Reset generated when entering in STANDBY
1115:../StdPeripheralDriver/src/stm32f10x_flash.c ****   * @retval FLASH Status: The returned value can be: FLASH_ERROR_PG, 
1116:../StdPeripheralDriver/src/stm32f10x_flash.c ****   *         FLASH_ERROR_WRP, FLASH_COMPLETE or FLASH_TIMEOUT.
1117:../StdPeripheralDriver/src/stm32f10x_flash.c ****   */
1118:../StdPeripheralDriver/src/stm32f10x_flash.c **** FLASH_Status FLASH_UserOptionByteConfig(uint16_t OB_IWDG, uint16_t OB_STOP, uint16_t OB_STDBY)
1119:../StdPeripheralDriver/src/stm32f10x_flash.c **** {
 19267              		.loc 1 1119 0
 19268              		.cfi_startproc
 19269              		@ args = 0, pretend = 0, frame = 16
 19270              		@ frame_needed = 1, uses_anonymous_args = 0
 19271 0000 80B5     		push	{r7, lr}
 19272              	.LCFI44:
 19273              		.cfi_def_cfa_offset 8
 19274 0002 84B0     		sub	sp, sp, #16
 19275              	.LCFI45:
 19276              		.cfi_def_cfa_offset 24
 19277 0004 00AF     		add	r7, sp, #0
 19278              		.cfi_offset 14, -4
 19279              		.cfi_offset 7, -8
 19280              	.LCFI46:
 19281              		.cfi_def_cfa_register 7
 19282 0006 1346     		mov	r3, r2
 19283 0008 0246     		mov	r2, r0	@ movhi
 19284 000a FA80     		strh	r2, [r7, #6]	@ movhi
 19285 000c 0A46     		mov	r2, r1	@ movhi
 19286 000e BA80     		strh	r2, [r7, #4]	@ movhi
 19287 0010 7B80     		strh	r3, [r7, #2]	@ movhi
1120:../StdPeripheralDriver/src/stm32f10x_flash.c ****   FLASH_Status status = FLASH_COMPLETE; 
 19288              		.loc 1 1120 0
 19289 0012 4FF00403 		mov	r3, #4
 19290 0016 FB73     		strb	r3, [r7, #15]
1121:../StdPeripheralDriver/src/stm32f10x_flash.c **** 
1122:../StdPeripheralDriver/src/stm32f10x_flash.c ****   /* Check the parameters */
1123:../StdPeripheralDriver/src/stm32f10x_flash.c ****   assert_param(IS_OB_IWDG_SOURCE(OB_IWDG));
1124:../StdPeripheralDriver/src/stm32f10x_flash.c ****   assert_param(IS_OB_STOP_SOURCE(OB_STOP));
1125:../StdPeripheralDriver/src/stm32f10x_flash.c ****   assert_param(IS_OB_STDBY_SOURCE(OB_STDBY));
1126:../StdPeripheralDriver/src/stm32f10x_flash.c **** 
1127:../StdPeripheralDriver/src/stm32f10x_flash.c ****   /* Authorize the small information block programming */
1128:../StdPeripheralDriver/src/stm32f10x_flash.c ****   FLASH->OPTKEYR = FLASH_KEY1;
 19291              		.loc 1 1128 0
 19292 0018 1C4B     		ldr	r3, .L70
 19293 001a 1D4A     		ldr	r2, .L70+4
 19294 001c 9A60     		str	r2, [r3, #8]
1129:../StdPeripheralDriver/src/stm32f10x_flash.c ****   FLASH->OPTKEYR = FLASH_KEY2;
 19295              		.loc 1 1129 0
 19296 001e 1B4B     		ldr	r3, .L70
 19297 0020 1C4A     		ldr	r2, .L70+8
 19298 0022 9A60     		str	r2, [r3, #8]
1130:../StdPeripheralDriver/src/stm32f10x_flash.c ****   
1131:../StdPeripheralDriver/src/stm32f10x_flash.c ****   /* Wait for last operation to be completed */
1132:../StdPeripheralDriver/src/stm32f10x_flash.c ****   status = FLASH_WaitForLastOperation(ProgramTimeout);
 19299              		.loc 1 1132 0
 19300 0024 4FF40050 		mov	r0, #8192
 19301 0028 FFF7FEFF 		bl	FLASH_WaitForLastOperation
 19302 002c 0346     		mov	r3, r0
 19303 002e FB73     		strb	r3, [r7, #15]
1133:../StdPeripheralDriver/src/stm32f10x_flash.c ****   
1134:../StdPeripheralDriver/src/stm32f10x_flash.c ****   if(status == FLASH_COMPLETE)
 19304              		.loc 1 1134 0
 19305 0030 FB7B     		ldrb	r3, [r7, #15]	@ zero_extendqisi2
 19306 0032 042B     		cmp	r3, #4
 19307 0034 24D1     		bne	.L69
1135:../StdPeripheralDriver/src/stm32f10x_flash.c ****   {  
1136:../StdPeripheralDriver/src/stm32f10x_flash.c ****     /* Enable the Option Bytes Programming operation */
1137:../StdPeripheralDriver/src/stm32f10x_flash.c ****     FLASH->CR |= CR_OPTPG_Set; 
 19308              		.loc 1 1137 0
 19309 0036 154B     		ldr	r3, .L70
 19310 0038 144A     		ldr	r2, .L70
 19311 003a 1269     		ldr	r2, [r2, #16]
 19312 003c 42F01002 		orr	r2, r2, #16
 19313 0040 1A61     		str	r2, [r3, #16]
1138:../StdPeripheralDriver/src/stm32f10x_flash.c ****            
1139:../StdPeripheralDriver/src/stm32f10x_flash.c ****     OB->USER = OB_IWDG | (uint16_t)(OB_STOP | (uint16_t)(OB_STDBY | ((uint16_t)0xF8))); 
 19314              		.loc 1 1139 0
 19315 0042 154B     		ldr	r3, .L70+12
 19316 0044 7988     		ldrh	r1, [r7, #2]	@ movhi
 19317 0046 BA88     		ldrh	r2, [r7, #4]	@ movhi
 19318 0048 41EA0202 		orr	r2, r1, r2
 19319 004c 91B2     		uxth	r1, r2
 19320 004e FA88     		ldrh	r2, [r7, #6]	@ movhi
 19321 0050 41EA0202 		orr	r2, r1, r2
 19322 0054 92B2     		uxth	r2, r2
 19323 0056 42F0F802 		orr	r2, r2, #248
 19324 005a 92B2     		uxth	r2, r2
 19325 005c 5A80     		strh	r2, [r3, #2]	@ movhi
1140:../StdPeripheralDriver/src/stm32f10x_flash.c ****   
1141:../StdPeripheralDriver/src/stm32f10x_flash.c ****     /* Wait for last operation to be completed */
1142:../StdPeripheralDriver/src/stm32f10x_flash.c ****     status = FLASH_WaitForLastOperation(ProgramTimeout);
 19326              		.loc 1 1142 0
 19327 005e 4FF40050 		mov	r0, #8192
 19328 0062 FFF7FEFF 		bl	FLASH_WaitForLastOperation
 19329 0066 0346     		mov	r3, r0
 19330 0068 FB73     		strb	r3, [r7, #15]
1143:../StdPeripheralDriver/src/stm32f10x_flash.c ****     if(status != FLASH_TIMEOUT)
 19331              		.loc 1 1143 0
 19332 006a FB7B     		ldrb	r3, [r7, #15]	@ zero_extendqisi2
 19333 006c 052B     		cmp	r3, #5
 19334 006e 07D0     		beq	.L69
1144:../StdPeripheralDriver/src/stm32f10x_flash.c ****     {
1145:../StdPeripheralDriver/src/stm32f10x_flash.c ****       /* if the program operation is completed, disable the OPTPG Bit */
1146:../StdPeripheralDriver/src/stm32f10x_flash.c ****       FLASH->CR &= CR_OPTPG_Reset;
 19335              		.loc 1 1146 0
 19336 0070 064A     		ldr	r2, .L70
 19337 0072 064B     		ldr	r3, .L70
 19338 0074 1969     		ldr	r1, [r3, #16]
 19339 0076 41F6EF73 		movw	r3, #8175
 19340 007a 01EA0303 		and	r3, r1, r3
 19341 007e 1361     		str	r3, [r2, #16]
 19342              	.L69:
1147:../StdPeripheralDriver/src/stm32f10x_flash.c ****     }
1148:../StdPeripheralDriver/src/stm32f10x_flash.c ****   }    
1149:../StdPeripheralDriver/src/stm32f10x_flash.c ****   /* Return the Option Byte program Status */
1150:../StdPeripheralDriver/src/stm32f10x_flash.c ****   return status;
 19343              		.loc 1 1150 0
 19344 0080 FB7B     		ldrb	r3, [r7, #15]	@ zero_extendqisi2
1151:../StdPeripheralDriver/src/stm32f10x_flash.c **** }
 19345              		.loc 1 1151 0
 19346 0082 1846     		mov	r0, r3
 19347 0084 07F11007 		add	r7, r7, #16
 19348 0088 BD46     		mov	sp, r7
 19349 008a 80BD     		pop	{r7, pc}
 19350              	.L71:
 19351              		.align	2
 19352              	.L70:
 19353 008c 00200240 		.word	1073881088
 19354 0090 23016745 		.word	1164378403
 19355 0094 AB89EFCD 		.word	-839939669
 19356 0098 00F8FF1F 		.word	536868864
 19357              		.cfi_endproc
 19358              	.LFE45:
 19360              		.section	.text.FLASH_GetUserOptionByte,"ax",%progbits
 19361              		.align	2
 19362              		.global	FLASH_GetUserOptionByte
 19363              		.thumb
 19364              		.thumb_func
 19366              	FLASH_GetUserOptionByte:
 19367              	.LFB46:
1152:../StdPeripheralDriver/src/stm32f10x_flash.c **** 
1153:../StdPeripheralDriver/src/stm32f10x_flash.c **** #ifdef STM32F10X_XL
1154:../StdPeripheralDriver/src/stm32f10x_flash.c **** /**
1155:../StdPeripheralDriver/src/stm32f10x_flash.c ****   * @brief  Configures to boot from Bank1 or Bank2.  
1156:../StdPeripheralDriver/src/stm32f10x_flash.c ****   * @note   This function can be used only for STM32F10x_XL density devices.
1157:../StdPeripheralDriver/src/stm32f10x_flash.c ****   * @param  FLASH_BOOT: select the FLASH Bank to boot from.
1158:../StdPeripheralDriver/src/stm32f10x_flash.c ****   *   This parameter can be one of the following values:
1159:../StdPeripheralDriver/src/stm32f10x_flash.c ****   *     @arg FLASH_BOOT_Bank1: At startup, if boot pins are set in boot from user Flash
1160:../StdPeripheralDriver/src/stm32f10x_flash.c ****   *        position and this parameter is selected the device will boot from Bank1(Default).
1161:../StdPeripheralDriver/src/stm32f10x_flash.c ****   *     @arg FLASH_BOOT_Bank2: At startup, if boot pins are set in boot from user Flash
1162:../StdPeripheralDriver/src/stm32f10x_flash.c ****   *        position and this parameter is selected the device will boot from Bank2 or Bank1,
1163:../StdPeripheralDriver/src/stm32f10x_flash.c ****   *        depending on the activation of the bank. The active banks are checked in
1164:../StdPeripheralDriver/src/stm32f10x_flash.c ****   *        the following order: Bank2, followed by Bank1.
1165:../StdPeripheralDriver/src/stm32f10x_flash.c ****   *        The active bank is recognized by the value programmed at the base address
1166:../StdPeripheralDriver/src/stm32f10x_flash.c ****   *        of the respective bank (corresponding to the initial stack pointer value
1167:../StdPeripheralDriver/src/stm32f10x_flash.c ****   *        in the interrupt vector table).
1168:../StdPeripheralDriver/src/stm32f10x_flash.c ****   *        For more information, please refer to AN2606 from www.st.com.    
1169:../StdPeripheralDriver/src/stm32f10x_flash.c ****   * @retval FLASH Status: The returned value can be: FLASH_ERROR_PG, 
1170:../StdPeripheralDriver/src/stm32f10x_flash.c ****   *         FLASH_ERROR_WRP, FLASH_COMPLETE or FLASH_TIMEOUT.
1171:../StdPeripheralDriver/src/stm32f10x_flash.c ****   */
1172:../StdPeripheralDriver/src/stm32f10x_flash.c **** FLASH_Status FLASH_BootConfig(uint16_t FLASH_BOOT)
1173:../StdPeripheralDriver/src/stm32f10x_flash.c **** { 
1174:../StdPeripheralDriver/src/stm32f10x_flash.c ****   FLASH_Status status = FLASH_COMPLETE; 
1175:../StdPeripheralDriver/src/stm32f10x_flash.c ****   assert_param(IS_FLASH_BOOT(FLASH_BOOT));
1176:../StdPeripheralDriver/src/stm32f10x_flash.c ****   /* Authorize the small information block programming */
1177:../StdPeripheralDriver/src/stm32f10x_flash.c ****   FLASH->OPTKEYR = FLASH_KEY1;
1178:../StdPeripheralDriver/src/stm32f10x_flash.c ****   FLASH->OPTKEYR = FLASH_KEY2;
1179:../StdPeripheralDriver/src/stm32f10x_flash.c ****   
1180:../StdPeripheralDriver/src/stm32f10x_flash.c ****   /* Wait for last operation to be completed */
1181:../StdPeripheralDriver/src/stm32f10x_flash.c ****   status = FLASH_WaitForLastOperation(ProgramTimeout);
1182:../StdPeripheralDriver/src/stm32f10x_flash.c ****   
1183:../StdPeripheralDriver/src/stm32f10x_flash.c ****   if(status == FLASH_COMPLETE)
1184:../StdPeripheralDriver/src/stm32f10x_flash.c ****   {  
1185:../StdPeripheralDriver/src/stm32f10x_flash.c ****     /* Enable the Option Bytes Programming operation */
1186:../StdPeripheralDriver/src/stm32f10x_flash.c ****     FLASH->CR |= CR_OPTPG_Set; 
1187:../StdPeripheralDriver/src/stm32f10x_flash.c **** 
1188:../StdPeripheralDriver/src/stm32f10x_flash.c ****     if(FLASH_BOOT == FLASH_BOOT_Bank1)
1189:../StdPeripheralDriver/src/stm32f10x_flash.c ****     {
1190:../StdPeripheralDriver/src/stm32f10x_flash.c ****       OB->USER |= OB_USER_BFB2;
1191:../StdPeripheralDriver/src/stm32f10x_flash.c ****     }
1192:../StdPeripheralDriver/src/stm32f10x_flash.c ****     else
1193:../StdPeripheralDriver/src/stm32f10x_flash.c ****     {
1194:../StdPeripheralDriver/src/stm32f10x_flash.c ****       OB->USER &= (uint16_t)(~(uint16_t)(OB_USER_BFB2));
1195:../StdPeripheralDriver/src/stm32f10x_flash.c ****     }
1196:../StdPeripheralDriver/src/stm32f10x_flash.c ****     /* Wait for last operation to be completed */
1197:../StdPeripheralDriver/src/stm32f10x_flash.c ****     status = FLASH_WaitForLastOperation(ProgramTimeout);
1198:../StdPeripheralDriver/src/stm32f10x_flash.c ****     if(status != FLASH_TIMEOUT)
1199:../StdPeripheralDriver/src/stm32f10x_flash.c ****     {
1200:../StdPeripheralDriver/src/stm32f10x_flash.c ****       /* if the program operation is completed, disable the OPTPG Bit */
1201:../StdPeripheralDriver/src/stm32f10x_flash.c ****       FLASH->CR &= CR_OPTPG_Reset;
1202:../StdPeripheralDriver/src/stm32f10x_flash.c ****     }
1203:../StdPeripheralDriver/src/stm32f10x_flash.c ****   }    
1204:../StdPeripheralDriver/src/stm32f10x_flash.c ****   /* Return the Option Byte program Status */
1205:../StdPeripheralDriver/src/stm32f10x_flash.c ****   return status;
1206:../StdPeripheralDriver/src/stm32f10x_flash.c **** }
1207:../StdPeripheralDriver/src/stm32f10x_flash.c **** #endif /* STM32F10X_XL */
1208:../StdPeripheralDriver/src/stm32f10x_flash.c **** 
1209:../StdPeripheralDriver/src/stm32f10x_flash.c **** /**
1210:../StdPeripheralDriver/src/stm32f10x_flash.c ****   * @brief  Returns the FLASH User Option Bytes values.
1211:../StdPeripheralDriver/src/stm32f10x_flash.c ****   * @note   This function can be used for all STM32F10x devices.
1212:../StdPeripheralDriver/src/stm32f10x_flash.c ****   * @param  None
1213:../StdPeripheralDriver/src/stm32f10x_flash.c ****   * @retval The FLASH User Option Bytes values:IWDG_SW(Bit0), RST_STOP(Bit1)
1214:../StdPeripheralDriver/src/stm32f10x_flash.c ****   *         and RST_STDBY(Bit2).
1215:../StdPeripheralDriver/src/stm32f10x_flash.c ****   */
1216:../StdPeripheralDriver/src/stm32f10x_flash.c **** uint32_t FLASH_GetUserOptionByte(void)
1217:../StdPeripheralDriver/src/stm32f10x_flash.c **** {
 19368              		.loc 1 1217 0
 19369              		.cfi_startproc
 19370              		@ args = 0, pretend = 0, frame = 0
 19371              		@ frame_needed = 1, uses_anonymous_args = 0
 19372              		@ link register save eliminated.
 19373 0000 80B4     		push	{r7}
 19374              	.LCFI47:
 19375              		.cfi_def_cfa_offset 4
 19376 0002 00AF     		add	r7, sp, #0
 19377              		.cfi_offset 7, -4
 19378              	.LCFI48:
 19379              		.cfi_def_cfa_register 7
1218:../StdPeripheralDriver/src/stm32f10x_flash.c ****   /* Return the User Option Byte */
1219:../StdPeripheralDriver/src/stm32f10x_flash.c ****   return (uint32_t)(FLASH->OBR >> 2);
 19380              		.loc 1 1219 0
 19381 0004 034B     		ldr	r3, .L73
 19382 0006 DB69     		ldr	r3, [r3, #28]
 19383 0008 4FEA9303 		lsr	r3, r3, #2
1220:../StdPeripheralDriver/src/stm32f10x_flash.c **** }
 19384              		.loc 1 1220 0
 19385 000c 1846     		mov	r0, r3
 19386 000e BD46     		mov	sp, r7
 19387 0010 80BC     		pop	{r7}
 19388 0012 7047     		bx	lr
 19389              	.L74:
 19390              		.align	2
 19391              	.L73:
 19392 0014 00200240 		.word	1073881088
 19393              		.cfi_endproc
 19394              	.LFE46:
 19396              		.section	.text.FLASH_GetWriteProtectionOptionByte,"ax",%progbits
 19397              		.align	2
 19398              		.global	FLASH_GetWriteProtectionOptionByte
 19399              		.thumb
 19400              		.thumb_func
 19402              	FLASH_GetWriteProtectionOptionByte:
 19403              	.LFB47:
1221:../StdPeripheralDriver/src/stm32f10x_flash.c **** 
1222:../StdPeripheralDriver/src/stm32f10x_flash.c **** /**
1223:../StdPeripheralDriver/src/stm32f10x_flash.c ****   * @brief  Returns the FLASH Write Protection Option Bytes Register value.
1224:../StdPeripheralDriver/src/stm32f10x_flash.c ****   * @note   This function can be used for all STM32F10x devices.
1225:../StdPeripheralDriver/src/stm32f10x_flash.c ****   * @param  None
1226:../StdPeripheralDriver/src/stm32f10x_flash.c ****   * @retval The FLASH Write Protection  Option Bytes Register value
1227:../StdPeripheralDriver/src/stm32f10x_flash.c ****   */
1228:../StdPeripheralDriver/src/stm32f10x_flash.c **** uint32_t FLASH_GetWriteProtectionOptionByte(void)
1229:../StdPeripheralDriver/src/stm32f10x_flash.c **** {
 19404              		.loc 1 1229 0
 19405              		.cfi_startproc
 19406              		@ args = 0, pretend = 0, frame = 0
 19407              		@ frame_needed = 1, uses_anonymous_args = 0
 19408              		@ link register save eliminated.
 19409 0000 80B4     		push	{r7}
 19410              	.LCFI49:
 19411              		.cfi_def_cfa_offset 4
 19412 0002 00AF     		add	r7, sp, #0
 19413              		.cfi_offset 7, -4
 19414              	.LCFI50:
 19415              		.cfi_def_cfa_register 7
1230:../StdPeripheralDriver/src/stm32f10x_flash.c ****   /* Return the Flash write protection Register value */
1231:../StdPeripheralDriver/src/stm32f10x_flash.c ****   return (uint32_t)(FLASH->WRPR);
 19416              		.loc 1 1231 0
 19417 0004 024B     		ldr	r3, .L76
 19418 0006 1B6A     		ldr	r3, [r3, #32]
1232:../StdPeripheralDriver/src/stm32f10x_flash.c **** }
 19419              		.loc 1 1232 0
 19420 0008 1846     		mov	r0, r3
 19421 000a BD46     		mov	sp, r7
 19422 000c 80BC     		pop	{r7}
 19423 000e 7047     		bx	lr
 19424              	.L77:
 19425              		.align	2
 19426              	.L76:
 19427 0010 00200240 		.word	1073881088
 19428              		.cfi_endproc
 19429              	.LFE47:
 19431              		.section	.text.FLASH_GetReadOutProtectionStatus,"ax",%progbits
 19432              		.align	2
 19433              		.global	FLASH_GetReadOutProtectionStatus
 19434              		.thumb
 19435              		.thumb_func
 19437              	FLASH_GetReadOutProtectionStatus:
 19438              	.LFB48:
1233:../StdPeripheralDriver/src/stm32f10x_flash.c **** 
1234:../StdPeripheralDriver/src/stm32f10x_flash.c **** /**
1235:../StdPeripheralDriver/src/stm32f10x_flash.c ****   * @brief  Checks whether the FLASH Read Out Protection Status is set or not.
1236:../StdPeripheralDriver/src/stm32f10x_flash.c ****   * @note   This function can be used for all STM32F10x devices.
1237:../StdPeripheralDriver/src/stm32f10x_flash.c ****   * @param  None
1238:../StdPeripheralDriver/src/stm32f10x_flash.c ****   * @retval FLASH ReadOut Protection Status(SET or RESET)
1239:../StdPeripheralDriver/src/stm32f10x_flash.c ****   */
1240:../StdPeripheralDriver/src/stm32f10x_flash.c **** FlagStatus FLASH_GetReadOutProtectionStatus(void)
1241:../StdPeripheralDriver/src/stm32f10x_flash.c **** {
 19439              		.loc 1 1241 0
 19440              		.cfi_startproc
 19441              		@ args = 0, pretend = 0, frame = 8
 19442              		@ frame_needed = 1, uses_anonymous_args = 0
 19443              		@ link register save eliminated.
 19444 0000 80B4     		push	{r7}
 19445              	.LCFI51:
 19446              		.cfi_def_cfa_offset 4
 19447 0002 83B0     		sub	sp, sp, #12
 19448              	.LCFI52:
 19449              		.cfi_def_cfa_offset 16
 19450 0004 00AF     		add	r7, sp, #0
 19451              		.cfi_offset 7, -4
 19452              	.LCFI53:
 19453              		.cfi_def_cfa_register 7
1242:../StdPeripheralDriver/src/stm32f10x_flash.c ****   FlagStatus readoutstatus = RESET;
 19454              		.loc 1 1242 0
 19455 0006 4FF00003 		mov	r3, #0
 19456 000a FB71     		strb	r3, [r7, #7]
1243:../StdPeripheralDriver/src/stm32f10x_flash.c ****   if ((FLASH->OBR & RDPRT_Mask) != (uint32_t)RESET)
 19457              		.loc 1 1243 0
 19458 000c 094B     		ldr	r3, .L81
 19459 000e DB69     		ldr	r3, [r3, #28]
 19460 0010 03F00203 		and	r3, r3, #2
 19461 0014 002B     		cmp	r3, #0
 19462 0016 03D0     		beq	.L79
1244:../StdPeripheralDriver/src/stm32f10x_flash.c ****   {
1245:../StdPeripheralDriver/src/stm32f10x_flash.c ****     readoutstatus = SET;
 19463              		.loc 1 1245 0
 19464 0018 4FF00103 		mov	r3, #1
 19465 001c FB71     		strb	r3, [r7, #7]
 19466 001e 02E0     		b	.L80
 19467              	.L79:
1246:../StdPeripheralDriver/src/stm32f10x_flash.c ****   }
1247:../StdPeripheralDriver/src/stm32f10x_flash.c ****   else
1248:../StdPeripheralDriver/src/stm32f10x_flash.c ****   {
1249:../StdPeripheralDriver/src/stm32f10x_flash.c ****     readoutstatus = RESET;
 19468              		.loc 1 1249 0
 19469 0020 4FF00003 		mov	r3, #0
 19470 0024 FB71     		strb	r3, [r7, #7]
 19471              	.L80:
1250:../StdPeripheralDriver/src/stm32f10x_flash.c ****   }
1251:../StdPeripheralDriver/src/stm32f10x_flash.c ****   return readoutstatus;
 19472              		.loc 1 1251 0
 19473 0026 FB79     		ldrb	r3, [r7, #7]	@ zero_extendqisi2
1252:../StdPeripheralDriver/src/stm32f10x_flash.c **** }
 19474              		.loc 1 1252 0
 19475 0028 1846     		mov	r0, r3
 19476 002a 07F10C07 		add	r7, r7, #12
 19477 002e BD46     		mov	sp, r7
 19478 0030 80BC     		pop	{r7}
 19479 0032 7047     		bx	lr
 19480              	.L82:
 19481              		.align	2
 19482              	.L81:
 19483 0034 00200240 		.word	1073881088
 19484              		.cfi_endproc
 19485              	.LFE48:
 19487              		.section	.text.FLASH_GetPrefetchBufferStatus,"ax",%progbits
 19488              		.align	2
 19489              		.global	FLASH_GetPrefetchBufferStatus
 19490              		.thumb
 19491              		.thumb_func
 19493              	FLASH_GetPrefetchBufferStatus:
 19494              	.LFB49:
1253:../StdPeripheralDriver/src/stm32f10x_flash.c **** 
1254:../StdPeripheralDriver/src/stm32f10x_flash.c **** /**
1255:../StdPeripheralDriver/src/stm32f10x_flash.c ****   * @brief  Checks whether the FLASH Prefetch Buffer status is set or not.
1256:../StdPeripheralDriver/src/stm32f10x_flash.c ****   * @note   This function can be used for all STM32F10x devices.
1257:../StdPeripheralDriver/src/stm32f10x_flash.c ****   * @param  None
1258:../StdPeripheralDriver/src/stm32f10x_flash.c ****   * @retval FLASH Prefetch Buffer Status (SET or RESET).
1259:../StdPeripheralDriver/src/stm32f10x_flash.c ****   */
1260:../StdPeripheralDriver/src/stm32f10x_flash.c **** FlagStatus FLASH_GetPrefetchBufferStatus(void)
1261:../StdPeripheralDriver/src/stm32f10x_flash.c **** {
 19495              		.loc 1 1261 0
 19496              		.cfi_startproc
 19497              		@ args = 0, pretend = 0, frame = 8
 19498              		@ frame_needed = 1, uses_anonymous_args = 0
 19499              		@ link register save eliminated.
 19500 0000 80B4     		push	{r7}
 19501              	.LCFI54:
 19502              		.cfi_def_cfa_offset 4
 19503 0002 83B0     		sub	sp, sp, #12
 19504              	.LCFI55:
 19505              		.cfi_def_cfa_offset 16
 19506 0004 00AF     		add	r7, sp, #0
 19507              		.cfi_offset 7, -4
 19508              	.LCFI56:
 19509              		.cfi_def_cfa_register 7
1262:../StdPeripheralDriver/src/stm32f10x_flash.c ****   FlagStatus bitstatus = RESET;
 19510              		.loc 1 1262 0
 19511 0006 4FF00003 		mov	r3, #0
 19512 000a FB71     		strb	r3, [r7, #7]
1263:../StdPeripheralDriver/src/stm32f10x_flash.c ****   
1264:../StdPeripheralDriver/src/stm32f10x_flash.c ****   if ((FLASH->ACR & ACR_PRFTBS_Mask) != (uint32_t)RESET)
 19513              		.loc 1 1264 0
 19514 000c 094B     		ldr	r3, .L86
 19515 000e 1B68     		ldr	r3, [r3, #0]
 19516 0010 03F02003 		and	r3, r3, #32
 19517 0014 002B     		cmp	r3, #0
 19518 0016 03D0     		beq	.L84
1265:../StdPeripheralDriver/src/stm32f10x_flash.c ****   {
1266:../StdPeripheralDriver/src/stm32f10x_flash.c ****     bitstatus = SET;
 19519              		.loc 1 1266 0
 19520 0018 4FF00103 		mov	r3, #1
 19521 001c FB71     		strb	r3, [r7, #7]
 19522 001e 02E0     		b	.L85
 19523              	.L84:
1267:../StdPeripheralDriver/src/stm32f10x_flash.c ****   }
1268:../StdPeripheralDriver/src/stm32f10x_flash.c ****   else
1269:../StdPeripheralDriver/src/stm32f10x_flash.c ****   {
1270:../StdPeripheralDriver/src/stm32f10x_flash.c ****     bitstatus = RESET;
 19524              		.loc 1 1270 0
 19525 0020 4FF00003 		mov	r3, #0
 19526 0024 FB71     		strb	r3, [r7, #7]
 19527              	.L85:
1271:../StdPeripheralDriver/src/stm32f10x_flash.c ****   }
1272:../StdPeripheralDriver/src/stm32f10x_flash.c ****   /* Return the new state of FLASH Prefetch Buffer Status (SET or RESET) */
1273:../StdPeripheralDriver/src/stm32f10x_flash.c ****   return bitstatus; 
 19528              		.loc 1 1273 0
 19529 0026 FB79     		ldrb	r3, [r7, #7]	@ zero_extendqisi2
1274:../StdPeripheralDriver/src/stm32f10x_flash.c **** }
 19530              		.loc 1 1274 0
 19531 0028 1846     		mov	r0, r3
 19532 002a 07F10C07 		add	r7, r7, #12
 19533 002e BD46     		mov	sp, r7
 19534 0030 80BC     		pop	{r7}
 19535 0032 7047     		bx	lr
 19536              	.L87:
 19537              		.align	2
 19538              	.L86:
 19539 0034 00200240 		.word	1073881088
 19540              		.cfi_endproc
 19541              	.LFE49:
 19543              		.section	.text.FLASH_ITConfig,"ax",%progbits
 19544              		.align	2
 19545              		.global	FLASH_ITConfig
 19546              		.thumb
 19547              		.thumb_func
 19549              	FLASH_ITConfig:
 19550              	.LFB50:
1275:../StdPeripheralDriver/src/stm32f10x_flash.c **** 
1276:../StdPeripheralDriver/src/stm32f10x_flash.c **** /**
1277:../StdPeripheralDriver/src/stm32f10x_flash.c ****   * @brief  Enables or disables the specified FLASH interrupts.
1278:../StdPeripheralDriver/src/stm32f10x_flash.c ****   * @note   This function can be used for all STM32F10x devices.
1279:../StdPeripheralDriver/src/stm32f10x_flash.c ****   *         - For STM32F10X_XL devices, enables or disables the specified FLASH interrupts
1280:../StdPeripheralDriver/src/stm32f10x_flash.c ****               for Bank1 and Bank2.
1281:../StdPeripheralDriver/src/stm32f10x_flash.c ****   *         - For other devices it enables or disables the specified FLASH interrupts for Bank1.
1282:../StdPeripheralDriver/src/stm32f10x_flash.c ****   * @param  FLASH_IT: specifies the FLASH interrupt sources to be enabled or disabled.
1283:../StdPeripheralDriver/src/stm32f10x_flash.c ****   *   This parameter can be any combination of the following values:
1284:../StdPeripheralDriver/src/stm32f10x_flash.c ****   *     @arg FLASH_IT_ERROR: FLASH Error Interrupt
1285:../StdPeripheralDriver/src/stm32f10x_flash.c ****   *     @arg FLASH_IT_EOP: FLASH end of operation Interrupt
1286:../StdPeripheralDriver/src/stm32f10x_flash.c ****   * @param  NewState: new state of the specified Flash interrupts.
1287:../StdPeripheralDriver/src/stm32f10x_flash.c ****   *   This parameter can be: ENABLE or DISABLE.      
1288:../StdPeripheralDriver/src/stm32f10x_flash.c ****   * @retval None 
1289:../StdPeripheralDriver/src/stm32f10x_flash.c ****   */
1290:../StdPeripheralDriver/src/stm32f10x_flash.c **** void FLASH_ITConfig(uint32_t FLASH_IT, FunctionalState NewState)
1291:../StdPeripheralDriver/src/stm32f10x_flash.c **** {
 19551              		.loc 1 1291 0
 19552              		.cfi_startproc
 19553              		@ args = 0, pretend = 0, frame = 8
 19554              		@ frame_needed = 1, uses_anonymous_args = 0
 19555              		@ link register save eliminated.
 19556 0000 80B4     		push	{r7}
 19557              	.LCFI57:
 19558              		.cfi_def_cfa_offset 4
 19559 0002 83B0     		sub	sp, sp, #12
 19560              	.LCFI58:
 19561              		.cfi_def_cfa_offset 16
 19562 0004 00AF     		add	r7, sp, #0
 19563              		.cfi_offset 7, -4
 19564              	.LCFI59:
 19565              		.cfi_def_cfa_register 7
 19566 0006 7860     		str	r0, [r7, #4]
 19567 0008 0B46     		mov	r3, r1
 19568 000a FB70     		strb	r3, [r7, #3]
1292:../StdPeripheralDriver/src/stm32f10x_flash.c **** #ifdef STM32F10X_XL
1293:../StdPeripheralDriver/src/stm32f10x_flash.c ****   /* Check the parameters */
1294:../StdPeripheralDriver/src/stm32f10x_flash.c ****   assert_param(IS_FLASH_IT(FLASH_IT)); 
1295:../StdPeripheralDriver/src/stm32f10x_flash.c ****   assert_param(IS_FUNCTIONAL_STATE(NewState));
1296:../StdPeripheralDriver/src/stm32f10x_flash.c **** 
1297:../StdPeripheralDriver/src/stm32f10x_flash.c ****   if((FLASH_IT & 0x80000000) != 0x0)
1298:../StdPeripheralDriver/src/stm32f10x_flash.c ****   {
1299:../StdPeripheralDriver/src/stm32f10x_flash.c ****     if(NewState != DISABLE)
1300:../StdPeripheralDriver/src/stm32f10x_flash.c ****     {
1301:../StdPeripheralDriver/src/stm32f10x_flash.c ****       /* Enable the interrupt sources */
1302:../StdPeripheralDriver/src/stm32f10x_flash.c ****       FLASH->CR2 |= (FLASH_IT & 0x7FFFFFFF);
1303:../StdPeripheralDriver/src/stm32f10x_flash.c ****     }
1304:../StdPeripheralDriver/src/stm32f10x_flash.c ****     else
1305:../StdPeripheralDriver/src/stm32f10x_flash.c ****     {
1306:../StdPeripheralDriver/src/stm32f10x_flash.c ****       /* Disable the interrupt sources */
1307:../StdPeripheralDriver/src/stm32f10x_flash.c ****       FLASH->CR2 &= ~(uint32_t)(FLASH_IT & 0x7FFFFFFF);
1308:../StdPeripheralDriver/src/stm32f10x_flash.c ****     }
1309:../StdPeripheralDriver/src/stm32f10x_flash.c ****   }
1310:../StdPeripheralDriver/src/stm32f10x_flash.c ****   else
1311:../StdPeripheralDriver/src/stm32f10x_flash.c ****   {
1312:../StdPeripheralDriver/src/stm32f10x_flash.c ****     if(NewState != DISABLE)
1313:../StdPeripheralDriver/src/stm32f10x_flash.c ****     {
1314:../StdPeripheralDriver/src/stm32f10x_flash.c ****       /* Enable the interrupt sources */
1315:../StdPeripheralDriver/src/stm32f10x_flash.c ****       FLASH->CR |= FLASH_IT;
1316:../StdPeripheralDriver/src/stm32f10x_flash.c ****     }
1317:../StdPeripheralDriver/src/stm32f10x_flash.c ****     else
1318:../StdPeripheralDriver/src/stm32f10x_flash.c ****     {
1319:../StdPeripheralDriver/src/stm32f10x_flash.c ****       /* Disable the interrupt sources */
1320:../StdPeripheralDriver/src/stm32f10x_flash.c ****       FLASH->CR &= ~(uint32_t)FLASH_IT;
1321:../StdPeripheralDriver/src/stm32f10x_flash.c ****     }
1322:../StdPeripheralDriver/src/stm32f10x_flash.c ****   }
1323:../StdPeripheralDriver/src/stm32f10x_flash.c **** #else
1324:../StdPeripheralDriver/src/stm32f10x_flash.c ****   /* Check the parameters */
1325:../StdPeripheralDriver/src/stm32f10x_flash.c ****   assert_param(IS_FLASH_IT(FLASH_IT)); 
1326:../StdPeripheralDriver/src/stm32f10x_flash.c ****   assert_param(IS_FUNCTIONAL_STATE(NewState));
1327:../StdPeripheralDriver/src/stm32f10x_flash.c **** 
1328:../StdPeripheralDriver/src/stm32f10x_flash.c ****   if(NewState != DISABLE)
 19569              		.loc 1 1328 0
 19570 000c FB78     		ldrb	r3, [r7, #3]	@ zero_extendqisi2
 19571 000e 002B     		cmp	r3, #0
 19572 0010 07D0     		beq	.L89
1329:../StdPeripheralDriver/src/stm32f10x_flash.c ****   {
1330:../StdPeripheralDriver/src/stm32f10x_flash.c ****     /* Enable the interrupt sources */
1331:../StdPeripheralDriver/src/stm32f10x_flash.c ****     FLASH->CR |= FLASH_IT;
 19573              		.loc 1 1331 0
 19574 0012 0B4B     		ldr	r3, .L91
 19575 0014 0A4A     		ldr	r2, .L91
 19576 0016 1169     		ldr	r1, [r2, #16]
 19577 0018 7A68     		ldr	r2, [r7, #4]
 19578 001a 41EA0202 		orr	r2, r1, r2
 19579 001e 1A61     		str	r2, [r3, #16]
 19580 0020 08E0     		b	.L88
 19581              	.L89:
1332:../StdPeripheralDriver/src/stm32f10x_flash.c ****   }
1333:../StdPeripheralDriver/src/stm32f10x_flash.c ****   else
1334:../StdPeripheralDriver/src/stm32f10x_flash.c ****   {
1335:../StdPeripheralDriver/src/stm32f10x_flash.c ****     /* Disable the interrupt sources */
1336:../StdPeripheralDriver/src/stm32f10x_flash.c ****     FLASH->CR &= ~(uint32_t)FLASH_IT;
 19582              		.loc 1 1336 0
 19583 0022 074B     		ldr	r3, .L91
 19584 0024 064A     		ldr	r2, .L91
 19585 0026 1169     		ldr	r1, [r2, #16]
 19586 0028 7A68     		ldr	r2, [r7, #4]
 19587 002a 6FEA0202 		mvn	r2, r2
 19588 002e 01EA0202 		and	r2, r1, r2
 19589 0032 1A61     		str	r2, [r3, #16]
 19590              	.L88:
1337:../StdPeripheralDriver/src/stm32f10x_flash.c ****   }
1338:../StdPeripheralDriver/src/stm32f10x_flash.c **** #endif /* STM32F10X_XL */
1339:../StdPeripheralDriver/src/stm32f10x_flash.c **** }
 19591              		.loc 1 1339 0
 19592 0034 07F10C07 		add	r7, r7, #12
 19593 0038 BD46     		mov	sp, r7
 19594 003a 80BC     		pop	{r7}
 19595 003c 7047     		bx	lr
 19596              	.L92:
 19597 003e 00BF     		.align	2
 19598              	.L91:
 19599 0040 00200240 		.word	1073881088
 19600              		.cfi_endproc
 19601              	.LFE50:
 19603              		.section	.text.FLASH_GetFlagStatus,"ax",%progbits
 19604              		.align	2
 19605              		.global	FLASH_GetFlagStatus
 19606              		.thumb
 19607              		.thumb_func
 19609              	FLASH_GetFlagStatus:
 19610              	.LFB51:
1340:../StdPeripheralDriver/src/stm32f10x_flash.c **** 
1341:../StdPeripheralDriver/src/stm32f10x_flash.c **** /**
1342:../StdPeripheralDriver/src/stm32f10x_flash.c ****   * @brief  Checks whether the specified FLASH flag is set or not.
1343:../StdPeripheralDriver/src/stm32f10x_flash.c ****   * @note   This function can be used for all STM32F10x devices.
1344:../StdPeripheralDriver/src/stm32f10x_flash.c ****   *         - For STM32F10X_XL devices, this function checks whether the specified 
1345:../StdPeripheralDriver/src/stm32f10x_flash.c ****   *           Bank1 or Bank2 flag is set or not.
1346:../StdPeripheralDriver/src/stm32f10x_flash.c ****   *         - For other devices, it checks whether the specified Bank1 flag is 
1347:../StdPeripheralDriver/src/stm32f10x_flash.c ****   *           set or not.
1348:../StdPeripheralDriver/src/stm32f10x_flash.c ****   * @param  FLASH_FLAG: specifies the FLASH flag to check.
1349:../StdPeripheralDriver/src/stm32f10x_flash.c ****   *   This parameter can be one of the following values:
1350:../StdPeripheralDriver/src/stm32f10x_flash.c ****   *     @arg FLASH_FLAG_BSY: FLASH Busy flag           
1351:../StdPeripheralDriver/src/stm32f10x_flash.c ****   *     @arg FLASH_FLAG_PGERR: FLASH Program error flag       
1352:../StdPeripheralDriver/src/stm32f10x_flash.c ****   *     @arg FLASH_FLAG_WRPRTERR: FLASH Write protected error flag      
1353:../StdPeripheralDriver/src/stm32f10x_flash.c ****   *     @arg FLASH_FLAG_EOP: FLASH End of Operation flag           
1354:../StdPeripheralDriver/src/stm32f10x_flash.c ****   *     @arg FLASH_FLAG_OPTERR:  FLASH Option Byte error flag     
1355:../StdPeripheralDriver/src/stm32f10x_flash.c ****   * @retval The new state of FLASH_FLAG (SET or RESET).
1356:../StdPeripheralDriver/src/stm32f10x_flash.c ****   */
1357:../StdPeripheralDriver/src/stm32f10x_flash.c **** FlagStatus FLASH_GetFlagStatus(uint32_t FLASH_FLAG)
1358:../StdPeripheralDriver/src/stm32f10x_flash.c **** {
 19611              		.loc 1 1358 0
 19612              		.cfi_startproc
 19613              		@ args = 0, pretend = 0, frame = 16
 19614              		@ frame_needed = 1, uses_anonymous_args = 0
 19615              		@ link register save eliminated.
 19616 0000 80B4     		push	{r7}
 19617              	.LCFI60:
 19618              		.cfi_def_cfa_offset 4
 19619 0002 85B0     		sub	sp, sp, #20
 19620              	.LCFI61:
 19621              		.cfi_def_cfa_offset 24
 19622 0004 00AF     		add	r7, sp, #0
 19623              		.cfi_offset 7, -4
 19624              	.LCFI62:
 19625              		.cfi_def_cfa_register 7
 19626 0006 7860     		str	r0, [r7, #4]
1359:../StdPeripheralDriver/src/stm32f10x_flash.c ****   FlagStatus bitstatus = RESET;
 19627              		.loc 1 1359 0
 19628 0008 4FF00003 		mov	r3, #0
 19629 000c FB73     		strb	r3, [r7, #15]
1360:../StdPeripheralDriver/src/stm32f10x_flash.c **** 
1361:../StdPeripheralDriver/src/stm32f10x_flash.c **** #ifdef STM32F10X_XL
1362:../StdPeripheralDriver/src/stm32f10x_flash.c ****   /* Check the parameters */
1363:../StdPeripheralDriver/src/stm32f10x_flash.c ****   assert_param(IS_FLASH_GET_FLAG(FLASH_FLAG)) ;
1364:../StdPeripheralDriver/src/stm32f10x_flash.c ****   if(FLASH_FLAG == FLASH_FLAG_OPTERR) 
1365:../StdPeripheralDriver/src/stm32f10x_flash.c ****   {
1366:../StdPeripheralDriver/src/stm32f10x_flash.c ****     if((FLASH->OBR & FLASH_FLAG_OPTERR) != (uint32_t)RESET)
1367:../StdPeripheralDriver/src/stm32f10x_flash.c ****     {
1368:../StdPeripheralDriver/src/stm32f10x_flash.c ****       bitstatus = SET;
1369:../StdPeripheralDriver/src/stm32f10x_flash.c ****     }
1370:../StdPeripheralDriver/src/stm32f10x_flash.c ****     else
1371:../StdPeripheralDriver/src/stm32f10x_flash.c ****     {
1372:../StdPeripheralDriver/src/stm32f10x_flash.c ****       bitstatus = RESET;
1373:../StdPeripheralDriver/src/stm32f10x_flash.c ****     }
1374:../StdPeripheralDriver/src/stm32f10x_flash.c ****   }
1375:../StdPeripheralDriver/src/stm32f10x_flash.c ****   else
1376:../StdPeripheralDriver/src/stm32f10x_flash.c ****   {
1377:../StdPeripheralDriver/src/stm32f10x_flash.c ****     if((FLASH_FLAG & 0x80000000) != 0x0)
1378:../StdPeripheralDriver/src/stm32f10x_flash.c ****     {
1379:../StdPeripheralDriver/src/stm32f10x_flash.c ****       if((FLASH->SR2 & FLASH_FLAG) != (uint32_t)RESET)
1380:../StdPeripheralDriver/src/stm32f10x_flash.c ****       {
1381:../StdPeripheralDriver/src/stm32f10x_flash.c ****         bitstatus = SET;
1382:../StdPeripheralDriver/src/stm32f10x_flash.c ****       }
1383:../StdPeripheralDriver/src/stm32f10x_flash.c ****       else
1384:../StdPeripheralDriver/src/stm32f10x_flash.c ****       {
1385:../StdPeripheralDriver/src/stm32f10x_flash.c ****         bitstatus = RESET;
1386:../StdPeripheralDriver/src/stm32f10x_flash.c ****       }
1387:../StdPeripheralDriver/src/stm32f10x_flash.c ****     }
1388:../StdPeripheralDriver/src/stm32f10x_flash.c ****     else
1389:../StdPeripheralDriver/src/stm32f10x_flash.c ****     {
1390:../StdPeripheralDriver/src/stm32f10x_flash.c ****       if((FLASH->SR & FLASH_FLAG) != (uint32_t)RESET)
1391:../StdPeripheralDriver/src/stm32f10x_flash.c ****       {
1392:../StdPeripheralDriver/src/stm32f10x_flash.c ****         bitstatus = SET;
1393:../StdPeripheralDriver/src/stm32f10x_flash.c ****       }
1394:../StdPeripheralDriver/src/stm32f10x_flash.c ****       else
1395:../StdPeripheralDriver/src/stm32f10x_flash.c ****       {
1396:../StdPeripheralDriver/src/stm32f10x_flash.c ****         bitstatus = RESET;
1397:../StdPeripheralDriver/src/stm32f10x_flash.c ****       }
1398:../StdPeripheralDriver/src/stm32f10x_flash.c ****     }
1399:../StdPeripheralDriver/src/stm32f10x_flash.c ****   }
1400:../StdPeripheralDriver/src/stm32f10x_flash.c **** #else
1401:../StdPeripheralDriver/src/stm32f10x_flash.c ****   /* Check the parameters */
1402:../StdPeripheralDriver/src/stm32f10x_flash.c ****   assert_param(IS_FLASH_GET_FLAG(FLASH_FLAG)) ;
1403:../StdPeripheralDriver/src/stm32f10x_flash.c ****   if(FLASH_FLAG == FLASH_FLAG_OPTERR) 
 19630              		.loc 1 1403 0
 19631 000e 7B68     		ldr	r3, [r7, #4]
 19632 0010 012B     		cmp	r3, #1
 19633 0012 0ED1     		bne	.L94
1404:../StdPeripheralDriver/src/stm32f10x_flash.c ****   {
1405:../StdPeripheralDriver/src/stm32f10x_flash.c ****     if((FLASH->OBR & FLASH_FLAG_OPTERR) != (uint32_t)RESET)
 19634              		.loc 1 1405 0
 19635 0014 114B     		ldr	r3, .L98
 19636 0016 DB69     		ldr	r3, [r3, #28]
 19637 0018 03F00103 		and	r3, r3, #1
 19638 001c DBB2     		uxtb	r3, r3
 19639 001e 002B     		cmp	r3, #0
 19640 0020 03D0     		beq	.L95
1406:../StdPeripheralDriver/src/stm32f10x_flash.c ****     {
1407:../StdPeripheralDriver/src/stm32f10x_flash.c ****       bitstatus = SET;
 19641              		.loc 1 1407 0
 19642 0022 4FF00103 		mov	r3, #1
 19643 0026 FB73     		strb	r3, [r7, #15]
 19644 0028 11E0     		b	.L96
 19645              	.L95:
1408:../StdPeripheralDriver/src/stm32f10x_flash.c ****     }
1409:../StdPeripheralDriver/src/stm32f10x_flash.c ****     else
1410:../StdPeripheralDriver/src/stm32f10x_flash.c ****     {
1411:../StdPeripheralDriver/src/stm32f10x_flash.c ****       bitstatus = RESET;
 19646              		.loc 1 1411 0
 19647 002a 4FF00003 		mov	r3, #0
 19648 002e FB73     		strb	r3, [r7, #15]
 19649 0030 0DE0     		b	.L96
 19650              	.L94:
1412:../StdPeripheralDriver/src/stm32f10x_flash.c ****     }
1413:../StdPeripheralDriver/src/stm32f10x_flash.c ****   }
1414:../StdPeripheralDriver/src/stm32f10x_flash.c ****   else
1415:../StdPeripheralDriver/src/stm32f10x_flash.c ****   {
1416:../StdPeripheralDriver/src/stm32f10x_flash.c ****    if((FLASH->SR & FLASH_FLAG) != (uint32_t)RESET)
 19651              		.loc 1 1416 0
 19652 0032 0A4B     		ldr	r3, .L98
 19653 0034 DA68     		ldr	r2, [r3, #12]
 19654 0036 7B68     		ldr	r3, [r7, #4]
 19655 0038 02EA0303 		and	r3, r2, r3
 19656 003c 002B     		cmp	r3, #0
 19657 003e 03D0     		beq	.L97
1417:../StdPeripheralDriver/src/stm32f10x_flash.c ****     {
1418:../StdPeripheralDriver/src/stm32f10x_flash.c ****       bitstatus = SET;
 19658              		.loc 1 1418 0
 19659 0040 4FF00103 		mov	r3, #1
 19660 0044 FB73     		strb	r3, [r7, #15]
 19661 0046 02E0     		b	.L96
 19662              	.L97:
1419:../StdPeripheralDriver/src/stm32f10x_flash.c ****     }
1420:../StdPeripheralDriver/src/stm32f10x_flash.c ****     else
1421:../StdPeripheralDriver/src/stm32f10x_flash.c ****     {
1422:../StdPeripheralDriver/src/stm32f10x_flash.c ****       bitstatus = RESET;
 19663              		.loc 1 1422 0
 19664 0048 4FF00003 		mov	r3, #0
 19665 004c FB73     		strb	r3, [r7, #15]
 19666              	.L96:
1423:../StdPeripheralDriver/src/stm32f10x_flash.c ****     }
1424:../StdPeripheralDriver/src/stm32f10x_flash.c ****   }
1425:../StdPeripheralDriver/src/stm32f10x_flash.c **** #endif /* STM32F10X_XL */
1426:../StdPeripheralDriver/src/stm32f10x_flash.c **** 
1427:../StdPeripheralDriver/src/stm32f10x_flash.c ****   /* Return the new state of FLASH_FLAG (SET or RESET) */
1428:../StdPeripheralDriver/src/stm32f10x_flash.c ****   return bitstatus;
 19667              		.loc 1 1428 0
 19668 004e FB7B     		ldrb	r3, [r7, #15]	@ zero_extendqisi2
1429:../StdPeripheralDriver/src/stm32f10x_flash.c **** }
 19669              		.loc 1 1429 0
 19670 0050 1846     		mov	r0, r3
 19671 0052 07F11407 		add	r7, r7, #20
 19672 0056 BD46     		mov	sp, r7
 19673 0058 80BC     		pop	{r7}
 19674 005a 7047     		bx	lr
 19675              	.L99:
 19676              		.align	2
 19677              	.L98:
 19678 005c 00200240 		.word	1073881088
 19679              		.cfi_endproc
 19680              	.LFE51:
 19682              		.section	.text.FLASH_ClearFlag,"ax",%progbits
 19683              		.align	2
 19684              		.global	FLASH_ClearFlag
 19685              		.thumb
 19686              		.thumb_func
 19688              	FLASH_ClearFlag:
 19689              	.LFB52:
1430:../StdPeripheralDriver/src/stm32f10x_flash.c **** 
1431:../StdPeripheralDriver/src/stm32f10x_flash.c **** /**
1432:../StdPeripheralDriver/src/stm32f10x_flash.c ****   * @brief  Clears the FLASH's pending flags.
1433:../StdPeripheralDriver/src/stm32f10x_flash.c ****   * @note   This function can be used for all STM32F10x devices.
1434:../StdPeripheralDriver/src/stm32f10x_flash.c ****   *         - For STM32F10X_XL devices, this function clears Bank1 or Bank2s pending flags
1435:../StdPeripheralDriver/src/stm32f10x_flash.c ****   *         - For other devices, it clears Bank1s pending flags.
1436:../StdPeripheralDriver/src/stm32f10x_flash.c ****   * @param  FLASH_FLAG: specifies the FLASH flags to clear.
1437:../StdPeripheralDriver/src/stm32f10x_flash.c ****   *   This parameter can be any combination of the following values:         
1438:../StdPeripheralDriver/src/stm32f10x_flash.c ****   *     @arg FLASH_FLAG_PGERR: FLASH Program error flag       
1439:../StdPeripheralDriver/src/stm32f10x_flash.c ****   *     @arg FLASH_FLAG_WRPRTERR: FLASH Write protected error flag      
1440:../StdPeripheralDriver/src/stm32f10x_flash.c ****   *     @arg FLASH_FLAG_EOP: FLASH End of Operation flag           
1441:../StdPeripheralDriver/src/stm32f10x_flash.c ****   * @retval None
1442:../StdPeripheralDriver/src/stm32f10x_flash.c ****   */
1443:../StdPeripheralDriver/src/stm32f10x_flash.c **** void FLASH_ClearFlag(uint32_t FLASH_FLAG)
1444:../StdPeripheralDriver/src/stm32f10x_flash.c **** {
 19690              		.loc 1 1444 0
 19691              		.cfi_startproc
 19692              		@ args = 0, pretend = 0, frame = 8
 19693              		@ frame_needed = 1, uses_anonymous_args = 0
 19694              		@ link register save eliminated.
 19695 0000 80B4     		push	{r7}
 19696              	.LCFI63:
 19697              		.cfi_def_cfa_offset 4
 19698 0002 83B0     		sub	sp, sp, #12
 19699              	.LCFI64:
 19700              		.cfi_def_cfa_offset 16
 19701 0004 00AF     		add	r7, sp, #0
 19702              		.cfi_offset 7, -4
 19703              	.LCFI65:
 19704              		.cfi_def_cfa_register 7
 19705 0006 7860     		str	r0, [r7, #4]
1445:../StdPeripheralDriver/src/stm32f10x_flash.c **** #ifdef STM32F10X_XL
1446:../StdPeripheralDriver/src/stm32f10x_flash.c ****   /* Check the parameters */
1447:../StdPeripheralDriver/src/stm32f10x_flash.c ****   assert_param(IS_FLASH_CLEAR_FLAG(FLASH_FLAG)) ;
1448:../StdPeripheralDriver/src/stm32f10x_flash.c **** 
1449:../StdPeripheralDriver/src/stm32f10x_flash.c ****   if((FLASH_FLAG & 0x80000000) != 0x0)
1450:../StdPeripheralDriver/src/stm32f10x_flash.c ****   {
1451:../StdPeripheralDriver/src/stm32f10x_flash.c ****     /* Clear the flags */
1452:../StdPeripheralDriver/src/stm32f10x_flash.c ****     FLASH->SR2 = FLASH_FLAG;
1453:../StdPeripheralDriver/src/stm32f10x_flash.c ****   }
1454:../StdPeripheralDriver/src/stm32f10x_flash.c ****   else
1455:../StdPeripheralDriver/src/stm32f10x_flash.c ****   {
1456:../StdPeripheralDriver/src/stm32f10x_flash.c ****     /* Clear the flags */
1457:../StdPeripheralDriver/src/stm32f10x_flash.c ****     FLASH->SR = FLASH_FLAG;
1458:../StdPeripheralDriver/src/stm32f10x_flash.c ****   }  
1459:../StdPeripheralDriver/src/stm32f10x_flash.c **** 
1460:../StdPeripheralDriver/src/stm32f10x_flash.c **** #else
1461:../StdPeripheralDriver/src/stm32f10x_flash.c ****   /* Check the parameters */
1462:../StdPeripheralDriver/src/stm32f10x_flash.c ****   assert_param(IS_FLASH_CLEAR_FLAG(FLASH_FLAG)) ;
1463:../StdPeripheralDriver/src/stm32f10x_flash.c ****   
1464:../StdPeripheralDriver/src/stm32f10x_flash.c ****   /* Clear the flags */
1465:../StdPeripheralDriver/src/stm32f10x_flash.c ****   FLASH->SR = FLASH_FLAG;
 19706              		.loc 1 1465 0
 19707 0008 034B     		ldr	r3, .L101
 19708 000a 7A68     		ldr	r2, [r7, #4]
 19709 000c DA60     		str	r2, [r3, #12]
1466:../StdPeripheralDriver/src/stm32f10x_flash.c **** #endif /* STM32F10X_XL */
1467:../StdPeripheralDriver/src/stm32f10x_flash.c **** }
 19710              		.loc 1 1467 0
 19711 000e 07F10C07 		add	r7, r7, #12
 19712 0012 BD46     		mov	sp, r7
 19713 0014 80BC     		pop	{r7}
 19714 0016 7047     		bx	lr
 19715              	.L102:
 19716              		.align	2
 19717              	.L101:
 19718 0018 00200240 		.word	1073881088
 19719              		.cfi_endproc
 19720              	.LFE52:
 19722              		.section	.text.FLASH_GetStatus,"ax",%progbits
 19723              		.align	2
 19724              		.global	FLASH_GetStatus
 19725              		.thumb
 19726              		.thumb_func
 19728              	FLASH_GetStatus:
 19729              	.LFB53:
1468:../StdPeripheralDriver/src/stm32f10x_flash.c **** 
1469:../StdPeripheralDriver/src/stm32f10x_flash.c **** /**
1470:../StdPeripheralDriver/src/stm32f10x_flash.c ****   * @brief  Returns the FLASH Status.
1471:../StdPeripheralDriver/src/stm32f10x_flash.c ****   * @note   This function can be used for all STM32F10x devices, it is equivalent
1472:../StdPeripheralDriver/src/stm32f10x_flash.c ****   *         to FLASH_GetBank1Status function.
1473:../StdPeripheralDriver/src/stm32f10x_flash.c ****   * @param  None
1474:../StdPeripheralDriver/src/stm32f10x_flash.c ****   * @retval FLASH Status: The returned value can be: FLASH_BUSY, FLASH_ERROR_PG,
1475:../StdPeripheralDriver/src/stm32f10x_flash.c ****   *         FLASH_ERROR_WRP or FLASH_COMPLETE
1476:../StdPeripheralDriver/src/stm32f10x_flash.c ****   */
1477:../StdPeripheralDriver/src/stm32f10x_flash.c **** FLASH_Status FLASH_GetStatus(void)
1478:../StdPeripheralDriver/src/stm32f10x_flash.c **** {
 19730              		.loc 1 1478 0
 19731              		.cfi_startproc
 19732              		@ args = 0, pretend = 0, frame = 8
 19733              		@ frame_needed = 1, uses_anonymous_args = 0
 19734              		@ link register save eliminated.
 19735 0000 80B4     		push	{r7}
 19736              	.LCFI66:
 19737              		.cfi_def_cfa_offset 4
 19738 0002 83B0     		sub	sp, sp, #12
 19739              	.LCFI67:
 19740              		.cfi_def_cfa_offset 16
 19741 0004 00AF     		add	r7, sp, #0
 19742              		.cfi_offset 7, -4
 19743              	.LCFI68:
 19744              		.cfi_def_cfa_register 7
1479:../StdPeripheralDriver/src/stm32f10x_flash.c ****   FLASH_Status flashstatus = FLASH_COMPLETE;
 19745              		.loc 1 1479 0
 19746 0006 4FF00403 		mov	r3, #4
 19747 000a FB71     		strb	r3, [r7, #7]
1480:../StdPeripheralDriver/src/stm32f10x_flash.c ****   
1481:../StdPeripheralDriver/src/stm32f10x_flash.c ****   if((FLASH->SR & FLASH_FLAG_BSY) == FLASH_FLAG_BSY) 
 19748              		.loc 1 1481 0
 19749 000c 144B     		ldr	r3, .L108
 19750 000e DB68     		ldr	r3, [r3, #12]
 19751 0010 03F00103 		and	r3, r3, #1
 19752 0014 DBB2     		uxtb	r3, r3
 19753 0016 002B     		cmp	r3, #0
 19754 0018 03D0     		beq	.L104
1482:../StdPeripheralDriver/src/stm32f10x_flash.c ****   {
1483:../StdPeripheralDriver/src/stm32f10x_flash.c ****     flashstatus = FLASH_BUSY;
 19755              		.loc 1 1483 0
 19756 001a 4FF00103 		mov	r3, #1
 19757 001e FB71     		strb	r3, [r7, #7]
 19758 0020 16E0     		b	.L105
 19759              	.L104:
1484:../StdPeripheralDriver/src/stm32f10x_flash.c ****   }
1485:../StdPeripheralDriver/src/stm32f10x_flash.c ****   else 
1486:../StdPeripheralDriver/src/stm32f10x_flash.c ****   {  
1487:../StdPeripheralDriver/src/stm32f10x_flash.c ****     if((FLASH->SR & FLASH_FLAG_PGERR) != 0)
 19760              		.loc 1 1487 0
 19761 0022 0F4B     		ldr	r3, .L108
 19762 0024 DB68     		ldr	r3, [r3, #12]
 19763 0026 03F00403 		and	r3, r3, #4
 19764 002a 002B     		cmp	r3, #0
 19765 002c 03D0     		beq	.L106
1488:../StdPeripheralDriver/src/stm32f10x_flash.c ****     { 
1489:../StdPeripheralDriver/src/stm32f10x_flash.c ****       flashstatus = FLASH_ERROR_PG;
 19766              		.loc 1 1489 0
 19767 002e 4FF00203 		mov	r3, #2
 19768 0032 FB71     		strb	r3, [r7, #7]
 19769 0034 0CE0     		b	.L105
 19770              	.L106:
1490:../StdPeripheralDriver/src/stm32f10x_flash.c ****     }
1491:../StdPeripheralDriver/src/stm32f10x_flash.c ****     else 
1492:../StdPeripheralDriver/src/stm32f10x_flash.c ****     {
1493:../StdPeripheralDriver/src/stm32f10x_flash.c ****       if((FLASH->SR & FLASH_FLAG_WRPRTERR) != 0 )
 19771              		.loc 1 1493 0
 19772 0036 0A4B     		ldr	r3, .L108
 19773 0038 DB68     		ldr	r3, [r3, #12]
 19774 003a 03F01003 		and	r3, r3, #16
 19775 003e 002B     		cmp	r3, #0
 19776 0040 03D0     		beq	.L107
1494:../StdPeripheralDriver/src/stm32f10x_flash.c ****       {
1495:../StdPeripheralDriver/src/stm32f10x_flash.c ****         flashstatus = FLASH_ERROR_WRP;
 19777              		.loc 1 1495 0
 19778 0042 4FF00303 		mov	r3, #3
 19779 0046 FB71     		strb	r3, [r7, #7]
 19780 0048 02E0     		b	.L105
 19781              	.L107:
1496:../StdPeripheralDriver/src/stm32f10x_flash.c ****       }
1497:../StdPeripheralDriver/src/stm32f10x_flash.c ****       else
1498:../StdPeripheralDriver/src/stm32f10x_flash.c ****       {
1499:../StdPeripheralDriver/src/stm32f10x_flash.c ****         flashstatus = FLASH_COMPLETE;
 19782              		.loc 1 1499 0
 19783 004a 4FF00403 		mov	r3, #4
 19784 004e FB71     		strb	r3, [r7, #7]
 19785              	.L105:
1500:../StdPeripheralDriver/src/stm32f10x_flash.c ****       }
1501:../StdPeripheralDriver/src/stm32f10x_flash.c ****     }
1502:../StdPeripheralDriver/src/stm32f10x_flash.c ****   }
1503:../StdPeripheralDriver/src/stm32f10x_flash.c ****   /* Return the Flash Status */
1504:../StdPeripheralDriver/src/stm32f10x_flash.c ****   return flashstatus;
 19786              		.loc 1 1504 0
 19787 0050 FB79     		ldrb	r3, [r7, #7]	@ zero_extendqisi2
1505:../StdPeripheralDriver/src/stm32f10x_flash.c **** }
 19788              		.loc 1 1505 0
 19789 0052 1846     		mov	r0, r3
 19790 0054 07F10C07 		add	r7, r7, #12
 19791 0058 BD46     		mov	sp, r7
 19792 005a 80BC     		pop	{r7}
 19793 005c 7047     		bx	lr
 19794              	.L109:
 19795 005e 00BF     		.align	2
 19796              	.L108:
 19797 0060 00200240 		.word	1073881088
 19798              		.cfi_endproc
 19799              	.LFE53:
 19801              		.section	.text.FLASH_GetBank1Status,"ax",%progbits
 19802              		.align	2
 19803              		.global	FLASH_GetBank1Status
 19804              		.thumb
 19805              		.thumb_func
 19807              	FLASH_GetBank1Status:
 19808              	.LFB54:
1506:../StdPeripheralDriver/src/stm32f10x_flash.c **** 
1507:../StdPeripheralDriver/src/stm32f10x_flash.c **** /**
1508:../StdPeripheralDriver/src/stm32f10x_flash.c ****   * @brief  Returns the FLASH Bank1 Status.
1509:../StdPeripheralDriver/src/stm32f10x_flash.c ****   * @note   This function can be used for all STM32F10x devices, it is equivalent
1510:../StdPeripheralDriver/src/stm32f10x_flash.c ****   *         to FLASH_GetStatus function.
1511:../StdPeripheralDriver/src/stm32f10x_flash.c ****   * @param  None
1512:../StdPeripheralDriver/src/stm32f10x_flash.c ****   * @retval FLASH Status: The returned value can be: FLASH_BUSY, FLASH_ERROR_PG,
1513:../StdPeripheralDriver/src/stm32f10x_flash.c ****   *         FLASH_ERROR_WRP or FLASH_COMPLETE
1514:../StdPeripheralDriver/src/stm32f10x_flash.c ****   */
1515:../StdPeripheralDriver/src/stm32f10x_flash.c **** FLASH_Status FLASH_GetBank1Status(void)
1516:../StdPeripheralDriver/src/stm32f10x_flash.c **** {
 19809              		.loc 1 1516 0
 19810              		.cfi_startproc
 19811              		@ args = 0, pretend = 0, frame = 8
 19812              		@ frame_needed = 1, uses_anonymous_args = 0
 19813              		@ link register save eliminated.
 19814 0000 80B4     		push	{r7}
 19815              	.LCFI69:
 19816              		.cfi_def_cfa_offset 4
 19817 0002 83B0     		sub	sp, sp, #12
 19818              	.LCFI70:
 19819              		.cfi_def_cfa_offset 16
 19820 0004 00AF     		add	r7, sp, #0
 19821              		.cfi_offset 7, -4
 19822              	.LCFI71:
 19823              		.cfi_def_cfa_register 7
1517:../StdPeripheralDriver/src/stm32f10x_flash.c ****   FLASH_Status flashstatus = FLASH_COMPLETE;
 19824              		.loc 1 1517 0
 19825 0006 4FF00403 		mov	r3, #4
 19826 000a FB71     		strb	r3, [r7, #7]
1518:../StdPeripheralDriver/src/stm32f10x_flash.c ****   
1519:../StdPeripheralDriver/src/stm32f10x_flash.c ****   if((FLASH->SR & FLASH_FLAG_BANK1_BSY) == FLASH_FLAG_BSY) 
 19827              		.loc 1 1519 0
 19828 000c 144B     		ldr	r3, .L115
 19829 000e DB68     		ldr	r3, [r3, #12]
 19830 0010 03F00103 		and	r3, r3, #1
 19831 0014 DBB2     		uxtb	r3, r3
 19832 0016 002B     		cmp	r3, #0
 19833 0018 03D0     		beq	.L111
1520:../StdPeripheralDriver/src/stm32f10x_flash.c ****   {
1521:../StdPeripheralDriver/src/stm32f10x_flash.c ****     flashstatus = FLASH_BUSY;
 19834              		.loc 1 1521 0
 19835 001a 4FF00103 		mov	r3, #1
 19836 001e FB71     		strb	r3, [r7, #7]
 19837 0020 16E0     		b	.L112
 19838              	.L111:
1522:../StdPeripheralDriver/src/stm32f10x_flash.c ****   }
1523:../StdPeripheralDriver/src/stm32f10x_flash.c ****   else 
1524:../StdPeripheralDriver/src/stm32f10x_flash.c ****   {  
1525:../StdPeripheralDriver/src/stm32f10x_flash.c ****     if((FLASH->SR & FLASH_FLAG_BANK1_PGERR) != 0)
 19839              		.loc 1 1525 0
 19840 0022 0F4B     		ldr	r3, .L115
 19841 0024 DB68     		ldr	r3, [r3, #12]
 19842 0026 03F00403 		and	r3, r3, #4
 19843 002a 002B     		cmp	r3, #0
 19844 002c 03D0     		beq	.L113
1526:../StdPeripheralDriver/src/stm32f10x_flash.c ****     { 
1527:../StdPeripheralDriver/src/stm32f10x_flash.c ****       flashstatus = FLASH_ERROR_PG;
 19845              		.loc 1 1527 0
 19846 002e 4FF00203 		mov	r3, #2
 19847 0032 FB71     		strb	r3, [r7, #7]
 19848 0034 0CE0     		b	.L112
 19849              	.L113:
1528:../StdPeripheralDriver/src/stm32f10x_flash.c ****     }
1529:../StdPeripheralDriver/src/stm32f10x_flash.c ****     else 
1530:../StdPeripheralDriver/src/stm32f10x_flash.c ****     {
1531:../StdPeripheralDriver/src/stm32f10x_flash.c ****       if((FLASH->SR & FLASH_FLAG_BANK1_WRPRTERR) != 0 )
 19850              		.loc 1 1531 0
 19851 0036 0A4B     		ldr	r3, .L115
 19852 0038 DB68     		ldr	r3, [r3, #12]
 19853 003a 03F01003 		and	r3, r3, #16
 19854 003e 002B     		cmp	r3, #0
 19855 0040 03D0     		beq	.L114
1532:../StdPeripheralDriver/src/stm32f10x_flash.c ****       {
1533:../StdPeripheralDriver/src/stm32f10x_flash.c ****         flashstatus = FLASH_ERROR_WRP;
 19856              		.loc 1 1533 0
 19857 0042 4FF00303 		mov	r3, #3
 19858 0046 FB71     		strb	r3, [r7, #7]
 19859 0048 02E0     		b	.L112
 19860              	.L114:
1534:../StdPeripheralDriver/src/stm32f10x_flash.c ****       }
1535:../StdPeripheralDriver/src/stm32f10x_flash.c ****       else
1536:../StdPeripheralDriver/src/stm32f10x_flash.c ****       {
1537:../StdPeripheralDriver/src/stm32f10x_flash.c ****         flashstatus = FLASH_COMPLETE;
 19861              		.loc 1 1537 0
 19862 004a 4FF00403 		mov	r3, #4
 19863 004e FB71     		strb	r3, [r7, #7]
 19864              	.L112:
1538:../StdPeripheralDriver/src/stm32f10x_flash.c ****       }
1539:../StdPeripheralDriver/src/stm32f10x_flash.c ****     }
1540:../StdPeripheralDriver/src/stm32f10x_flash.c ****   }
1541:../StdPeripheralDriver/src/stm32f10x_flash.c ****   /* Return the Flash Status */
1542:../StdPeripheralDriver/src/stm32f10x_flash.c ****   return flashstatus;
 19865              		.loc 1 1542 0
 19866 0050 FB79     		ldrb	r3, [r7, #7]	@ zero_extendqisi2
1543:../StdPeripheralDriver/src/stm32f10x_flash.c **** }
 19867              		.loc 1 1543 0
 19868 0052 1846     		mov	r0, r3
 19869 0054 07F10C07 		add	r7, r7, #12
 19870 0058 BD46     		mov	sp, r7
 19871 005a 80BC     		pop	{r7}
 19872 005c 7047     		bx	lr
 19873              	.L116:
 19874 005e 00BF     		.align	2
 19875              	.L115:
 19876 0060 00200240 		.word	1073881088
 19877              		.cfi_endproc
 19878              	.LFE54:
 19880              		.section	.text.FLASH_WaitForLastOperation,"ax",%progbits
 19881              		.align	2
 19882              		.global	FLASH_WaitForLastOperation
 19883              		.thumb
 19884              		.thumb_func
 19886              	FLASH_WaitForLastOperation:
 19887              	.LFB55:
1544:../StdPeripheralDriver/src/stm32f10x_flash.c **** 
1545:../StdPeripheralDriver/src/stm32f10x_flash.c **** #ifdef STM32F10X_XL
1546:../StdPeripheralDriver/src/stm32f10x_flash.c **** /**
1547:../StdPeripheralDriver/src/stm32f10x_flash.c ****   * @brief  Returns the FLASH Bank2 Status.
1548:../StdPeripheralDriver/src/stm32f10x_flash.c ****   * @note   This function can be used for STM32F10x_XL density devices.
1549:../StdPeripheralDriver/src/stm32f10x_flash.c ****   * @param  None
1550:../StdPeripheralDriver/src/stm32f10x_flash.c ****   * @retval FLASH Status: The returned value can be: FLASH_BUSY, FLASH_ERROR_PG,
1551:../StdPeripheralDriver/src/stm32f10x_flash.c ****   *        FLASH_ERROR_WRP or FLASH_COMPLETE
1552:../StdPeripheralDriver/src/stm32f10x_flash.c ****   */
1553:../StdPeripheralDriver/src/stm32f10x_flash.c **** FLASH_Status FLASH_GetBank2Status(void)
1554:../StdPeripheralDriver/src/stm32f10x_flash.c **** {
1555:../StdPeripheralDriver/src/stm32f10x_flash.c ****   FLASH_Status flashstatus = FLASH_COMPLETE;
1556:../StdPeripheralDriver/src/stm32f10x_flash.c ****   
1557:../StdPeripheralDriver/src/stm32f10x_flash.c ****   if((FLASH->SR2 & (FLASH_FLAG_BANK2_BSY & 0x7FFFFFFF)) == (FLASH_FLAG_BANK2_BSY & 0x7FFFFFFF)) 
1558:../StdPeripheralDriver/src/stm32f10x_flash.c ****   {
1559:../StdPeripheralDriver/src/stm32f10x_flash.c ****     flashstatus = FLASH_BUSY;
1560:../StdPeripheralDriver/src/stm32f10x_flash.c ****   }
1561:../StdPeripheralDriver/src/stm32f10x_flash.c ****   else 
1562:../StdPeripheralDriver/src/stm32f10x_flash.c ****   {  
1563:../StdPeripheralDriver/src/stm32f10x_flash.c ****     if((FLASH->SR2 & (FLASH_FLAG_BANK2_PGERR & 0x7FFFFFFF)) != 0)
1564:../StdPeripheralDriver/src/stm32f10x_flash.c ****     { 
1565:../StdPeripheralDriver/src/stm32f10x_flash.c ****       flashstatus = FLASH_ERROR_PG;
1566:../StdPeripheralDriver/src/stm32f10x_flash.c ****     }
1567:../StdPeripheralDriver/src/stm32f10x_flash.c ****     else 
1568:../StdPeripheralDriver/src/stm32f10x_flash.c ****     {
1569:../StdPeripheralDriver/src/stm32f10x_flash.c ****       if((FLASH->SR2 & (FLASH_FLAG_BANK2_WRPRTERR & 0x7FFFFFFF)) != 0 )
1570:../StdPeripheralDriver/src/stm32f10x_flash.c ****       {
1571:../StdPeripheralDriver/src/stm32f10x_flash.c ****         flashstatus = FLASH_ERROR_WRP;
1572:../StdPeripheralDriver/src/stm32f10x_flash.c ****       }
1573:../StdPeripheralDriver/src/stm32f10x_flash.c ****       else
1574:../StdPeripheralDriver/src/stm32f10x_flash.c ****       {
1575:../StdPeripheralDriver/src/stm32f10x_flash.c ****         flashstatus = FLASH_COMPLETE;
1576:../StdPeripheralDriver/src/stm32f10x_flash.c ****       }
1577:../StdPeripheralDriver/src/stm32f10x_flash.c ****     }
1578:../StdPeripheralDriver/src/stm32f10x_flash.c ****   }
1579:../StdPeripheralDriver/src/stm32f10x_flash.c ****   /* Return the Flash Status */
1580:../StdPeripheralDriver/src/stm32f10x_flash.c ****   return flashstatus;
1581:../StdPeripheralDriver/src/stm32f10x_flash.c **** }
1582:../StdPeripheralDriver/src/stm32f10x_flash.c **** #endif /* STM32F10X_XL */
1583:../StdPeripheralDriver/src/stm32f10x_flash.c **** /**
1584:../StdPeripheralDriver/src/stm32f10x_flash.c ****   * @brief  Waits for a Flash operation to complete or a TIMEOUT to occur.
1585:../StdPeripheralDriver/src/stm32f10x_flash.c ****   * @note   This function can be used for all STM32F10x devices, 
1586:../StdPeripheralDriver/src/stm32f10x_flash.c ****   *         it is equivalent to FLASH_WaitForLastBank1Operation.
1587:../StdPeripheralDriver/src/stm32f10x_flash.c ****   *         - For STM32F10X_XL devices this function waits for a Bank1 Flash operation
1588:../StdPeripheralDriver/src/stm32f10x_flash.c ****   *           to complete or a TIMEOUT to occur.
1589:../StdPeripheralDriver/src/stm32f10x_flash.c ****   *         - For all other devices it waits for a Flash operation to complete 
1590:../StdPeripheralDriver/src/stm32f10x_flash.c ****   *           or a TIMEOUT to occur.
1591:../StdPeripheralDriver/src/stm32f10x_flash.c ****   * @param  Timeout: FLASH programming Timeout
1592:../StdPeripheralDriver/src/stm32f10x_flash.c ****   * @retval FLASH Status: The returned value can be: FLASH_ERROR_PG,
1593:../StdPeripheralDriver/src/stm32f10x_flash.c ****   *         FLASH_ERROR_WRP, FLASH_COMPLETE or FLASH_TIMEOUT.
1594:../StdPeripheralDriver/src/stm32f10x_flash.c ****   */
1595:../StdPeripheralDriver/src/stm32f10x_flash.c **** FLASH_Status FLASH_WaitForLastOperation(uint32_t Timeout)
1596:../StdPeripheralDriver/src/stm32f10x_flash.c **** { 
 19888              		.loc 1 1596 0
 19889              		.cfi_startproc
 19890              		@ args = 0, pretend = 0, frame = 16
 19891              		@ frame_needed = 1, uses_anonymous_args = 0
 19892 0000 80B5     		push	{r7, lr}
 19893              	.LCFI72:
 19894              		.cfi_def_cfa_offset 8
 19895 0002 84B0     		sub	sp, sp, #16
 19896              	.LCFI73:
 19897              		.cfi_def_cfa_offset 24
 19898 0004 00AF     		add	r7, sp, #0
 19899              		.cfi_offset 14, -4
 19900              		.cfi_offset 7, -8
 19901              	.LCFI74:
 19902              		.cfi_def_cfa_register 7
 19903 0006 7860     		str	r0, [r7, #4]
1597:../StdPeripheralDriver/src/stm32f10x_flash.c ****   FLASH_Status status = FLASH_COMPLETE;
 19904              		.loc 1 1597 0
 19905 0008 4FF00403 		mov	r3, #4
 19906 000c FB73     		strb	r3, [r7, #15]
1598:../StdPeripheralDriver/src/stm32f10x_flash.c ****    
1599:../StdPeripheralDriver/src/stm32f10x_flash.c ****   /* Check for the Flash Status */
1600:../StdPeripheralDriver/src/stm32f10x_flash.c ****   status = FLASH_GetBank1Status();
 19907              		.loc 1 1600 0
 19908 000e FFF7FEFF 		bl	FLASH_GetBank1Status
 19909 0012 0346     		mov	r3, r0
 19910 0014 FB73     		strb	r3, [r7, #15]
1601:../StdPeripheralDriver/src/stm32f10x_flash.c ****   /* Wait for a Flash operation to complete or a TIMEOUT to occur */
1602:../StdPeripheralDriver/src/stm32f10x_flash.c ****   while((status == FLASH_BUSY) && (Timeout != 0x00))
 19911              		.loc 1 1602 0
 19912 0016 07E0     		b	.L118
 19913              	.L120:
1603:../StdPeripheralDriver/src/stm32f10x_flash.c ****   {
1604:../StdPeripheralDriver/src/stm32f10x_flash.c ****     status = FLASH_GetBank1Status();
 19914              		.loc 1 1604 0
 19915 0018 FFF7FEFF 		bl	FLASH_GetBank1Status
 19916 001c 0346     		mov	r3, r0
 19917 001e FB73     		strb	r3, [r7, #15]
1605:../StdPeripheralDriver/src/stm32f10x_flash.c ****     Timeout--;
 19918              		.loc 1 1605 0
 19919 0020 7B68     		ldr	r3, [r7, #4]
 19920 0022 03F1FF33 		add	r3, r3, #-1
 19921 0026 7B60     		str	r3, [r7, #4]
 19922              	.L118:
1602:../StdPeripheralDriver/src/stm32f10x_flash.c ****   while((status == FLASH_BUSY) && (Timeout != 0x00))
 19923              		.loc 1 1602 0 discriminator 1
 19924 0028 FB7B     		ldrb	r3, [r7, #15]	@ zero_extendqisi2
 19925 002a 012B     		cmp	r3, #1
 19926 002c 02D1     		bne	.L119
1602:../StdPeripheralDriver/src/stm32f10x_flash.c ****   while((status == FLASH_BUSY) && (Timeout != 0x00))
 19927              		.loc 1 1602 0 is_stmt 0 discriminator 2
 19928 002e 7B68     		ldr	r3, [r7, #4]
 19929 0030 002B     		cmp	r3, #0
 19930 0032 F1D1     		bne	.L120
 19931              	.L119:
1606:../StdPeripheralDriver/src/stm32f10x_flash.c ****   }
1607:../StdPeripheralDriver/src/stm32f10x_flash.c ****   if(Timeout == 0x00 )
 19932              		.loc 1 1607 0 is_stmt 1
 19933 0034 7B68     		ldr	r3, [r7, #4]
 19934 0036 002B     		cmp	r3, #0
 19935 0038 02D1     		bne	.L121
1608:../StdPeripheralDriver/src/stm32f10x_flash.c ****   {
1609:../StdPeripheralDriver/src/stm32f10x_flash.c ****     status = FLASH_TIMEOUT;
 19936              		.loc 1 1609 0
 19937 003a 4FF00503 		mov	r3, #5
 19938 003e FB73     		strb	r3, [r7, #15]
 19939              	.L121:
1610:../StdPeripheralDriver/src/stm32f10x_flash.c ****   }
1611:../StdPeripheralDriver/src/stm32f10x_flash.c ****   /* Return the operation status */
1612:../StdPeripheralDriver/src/stm32f10x_flash.c ****   return status;
 19940              		.loc 1 1612 0
 19941 0040 FB7B     		ldrb	r3, [r7, #15]	@ zero_extendqisi2
1613:../StdPeripheralDriver/src/stm32f10x_flash.c **** }
 19942              		.loc 1 1613 0
 19943 0042 1846     		mov	r0, r3
 19944 0044 07F11007 		add	r7, r7, #16
 19945 0048 BD46     		mov	sp, r7
 19946 004a 80BD     		pop	{r7, pc}
 19947              		.cfi_endproc
 19948              	.LFE55:
 19950              		.section	.text.FLASH_WaitForLastBank1Operation,"ax",%progbits
 19951              		.align	2
 19952              		.global	FLASH_WaitForLastBank1Operation
 19953              		.thumb
 19954              		.thumb_func
 19956              	FLASH_WaitForLastBank1Operation:
 19957              	.LFB56:
1614:../StdPeripheralDriver/src/stm32f10x_flash.c **** 
1615:../StdPeripheralDriver/src/stm32f10x_flash.c **** /**
1616:../StdPeripheralDriver/src/stm32f10x_flash.c ****   * @brief  Waits for a Flash operation on Bank1 to complete or a TIMEOUT to occur.
1617:../StdPeripheralDriver/src/stm32f10x_flash.c ****   * @note   This function can be used for all STM32F10x devices, 
1618:../StdPeripheralDriver/src/stm32f10x_flash.c ****   *         it is equivalent to FLASH_WaitForLastOperation.
1619:../StdPeripheralDriver/src/stm32f10x_flash.c ****   * @param  Timeout: FLASH programming Timeout
1620:../StdPeripheralDriver/src/stm32f10x_flash.c ****   * @retval FLASH Status: The returned value can be: FLASH_ERROR_PG,
1621:../StdPeripheralDriver/src/stm32f10x_flash.c ****   *         FLASH_ERROR_WRP, FLASH_COMPLETE or FLASH_TIMEOUT.
1622:../StdPeripheralDriver/src/stm32f10x_flash.c ****   */
1623:../StdPeripheralDriver/src/stm32f10x_flash.c **** FLASH_Status FLASH_WaitForLastBank1Operation(uint32_t Timeout)
1624:../StdPeripheralDriver/src/stm32f10x_flash.c **** { 
 19958              		.loc 1 1624 0
 19959              		.cfi_startproc
 19960              		@ args = 0, pretend = 0, frame = 16
 19961              		@ frame_needed = 1, uses_anonymous_args = 0
 19962 0000 80B5     		push	{r7, lr}
 19963              	.LCFI75:
 19964              		.cfi_def_cfa_offset 8
 19965 0002 84B0     		sub	sp, sp, #16
 19966              	.LCFI76:
 19967              		.cfi_def_cfa_offset 24
 19968 0004 00AF     		add	r7, sp, #0
 19969              		.cfi_offset 14, -4
 19970              		.cfi_offset 7, -8
 19971              	.LCFI77:
 19972              		.cfi_def_cfa_register 7
 19973 0006 7860     		str	r0, [r7, #4]
1625:../StdPeripheralDriver/src/stm32f10x_flash.c ****   FLASH_Status status = FLASH_COMPLETE;
 19974              		.loc 1 1625 0
 19975 0008 4FF00403 		mov	r3, #4
 19976 000c FB73     		strb	r3, [r7, #15]
1626:../StdPeripheralDriver/src/stm32f10x_flash.c ****    
1627:../StdPeripheralDriver/src/stm32f10x_flash.c ****   /* Check for the Flash Status */
1628:../StdPeripheralDriver/src/stm32f10x_flash.c ****   status = FLASH_GetBank1Status();
 19977              		.loc 1 1628 0
 19978 000e FFF7FEFF 		bl	FLASH_GetBank1Status
 19979 0012 0346     		mov	r3, r0
 19980 0014 FB73     		strb	r3, [r7, #15]
1629:../StdPeripheralDriver/src/stm32f10x_flash.c ****   /* Wait for a Flash operation to complete or a TIMEOUT to occur */
1630:../StdPeripheralDriver/src/stm32f10x_flash.c ****   while((status == FLASH_FLAG_BANK1_BSY) && (Timeout != 0x00))
 19981              		.loc 1 1630 0
 19982 0016 07E0     		b	.L123
 19983              	.L125:
1631:../StdPeripheralDriver/src/stm32f10x_flash.c ****   {
1632:../StdPeripheralDriver/src/stm32f10x_flash.c ****     status = FLASH_GetBank1Status();
 19984              		.loc 1 1632 0
 19985 0018 FFF7FEFF 		bl	FLASH_GetBank1Status
 19986 001c 0346     		mov	r3, r0
 19987 001e FB73     		strb	r3, [r7, #15]
1633:../StdPeripheralDriver/src/stm32f10x_flash.c ****     Timeout--;
 19988              		.loc 1 1633 0
 19989 0020 7B68     		ldr	r3, [r7, #4]
 19990 0022 03F1FF33 		add	r3, r3, #-1
 19991 0026 7B60     		str	r3, [r7, #4]
 19992              	.L123:
1630:../StdPeripheralDriver/src/stm32f10x_flash.c ****   while((status == FLASH_FLAG_BANK1_BSY) && (Timeout != 0x00))
 19993              		.loc 1 1630 0 discriminator 1
 19994 0028 FB7B     		ldrb	r3, [r7, #15]	@ zero_extendqisi2
 19995 002a 012B     		cmp	r3, #1
 19996 002c 02D1     		bne	.L124
1630:../StdPeripheralDriver/src/stm32f10x_flash.c ****   while((status == FLASH_FLAG_BANK1_BSY) && (Timeout != 0x00))
 19997              		.loc 1 1630 0 is_stmt 0 discriminator 2
 19998 002e 7B68     		ldr	r3, [r7, #4]
 19999 0030 002B     		cmp	r3, #0
 20000 0032 F1D1     		bne	.L125
 20001              	.L124:
1634:../StdPeripheralDriver/src/stm32f10x_flash.c ****   }
1635:../StdPeripheralDriver/src/stm32f10x_flash.c ****   if(Timeout == 0x00 )
 20002              		.loc 1 1635 0 is_stmt 1
 20003 0034 7B68     		ldr	r3, [r7, #4]
 20004 0036 002B     		cmp	r3, #0
 20005 0038 02D1     		bne	.L126
1636:../StdPeripheralDriver/src/stm32f10x_flash.c ****   {
1637:../StdPeripheralDriver/src/stm32f10x_flash.c ****     status = FLASH_TIMEOUT;
 20006              		.loc 1 1637 0
 20007 003a 4FF00503 		mov	r3, #5
 20008 003e FB73     		strb	r3, [r7, #15]
 20009              	.L126:
1638:../StdPeripheralDriver/src/stm32f10x_flash.c ****   }
1639:../StdPeripheralDriver/src/stm32f10x_flash.c ****   /* Return the operation status */
1640:../StdPeripheralDriver/src/stm32f10x_flash.c ****   return status;
 20010              		.loc 1 1640 0
 20011 0040 FB7B     		ldrb	r3, [r7, #15]	@ zero_extendqisi2
1641:../StdPeripheralDriver/src/stm32f10x_flash.c **** }
 20012              		.loc 1 1641 0
 20013 0042 1846     		mov	r0, r3
 20014 0044 07F11007 		add	r7, r7, #16
 20015 0048 BD46     		mov	sp, r7
 20016 004a 80BD     		pop	{r7, pc}
 20017              		.cfi_endproc
 20018              	.LFE56:
 20020              		.text
 20021              	.Letext0: